
TIM_DMA_ILI9341_SPI_DMA.elf:     file format elf32-littleriscv
TIM_DMA_ILI9341_SPI_DMA.elf
architecture: riscv:rv32, flags 0x00000112:
EXEC_P, HAS_SYMS, D_PAGED
start address 0x00000000

Program Header:
    LOAD off    0x00001000 vaddr 0x00000000 paddr 0x00000000 align 2**12
         filesz 0x000033c4 memsz 0x000033c4 flags r-x
    LOAD off    0x00005000 vaddr 0x20000000 paddr 0x000033c4 align 2**12
         filesz 0x000000e8 memsz 0x0000022c flags rw-
    LOAD off    0x00005700 vaddr 0x20000700 paddr 0x20000700 align 2**12
         filesz 0x00000000 memsz 0x00000100 flags rw-

Sections:
Idx Name          Size      VMA       LMA       File off  Algn
  0 .init         000000a0  00000000  00000000  00001000  2**2
                  CONTENTS, ALLOC, LOAD, READONLY, CODE
  1 .highcodelalign 00000000  000000a0  000000a0  000050e8  2**0
                  CONTENTS
  2 .highcode     00000000  20000000  20000000  000050e8  2**0
                  CONTENTS
  3 .text         00003324  000000a0  000000a0  000010a0  2**2
                  CONTENTS, ALLOC, LOAD, READONLY, CODE
  4 .fini         00000000  000033c4  000033c4  000050e8  2**0
                  CONTENTS, ALLOC, LOAD, CODE
  5 .dalign       00000000  20000000  20000000  000050e8  2**0
                  CONTENTS
  6 .dlalign      00000000  000033c4  000033c4  000050e8  2**0
                  CONTENTS
  7 .data         000000e8  20000000  000033c4  00005000  2**2
                  CONTENTS, ALLOC, LOAD, DATA
  8 .bss          00000144  200000e8  000034ac  000050e8  2**2
                  ALLOC
  9 .stack        00000100  20000700  20000700  00005700  2**0
                  ALLOC
 10 .debug_info   00013782  00000000  00000000  000050e8  2**0
                  CONTENTS, READONLY, DEBUGGING
 11 .debug_abbrev 00002dc4  00000000  00000000  0001886a  2**0
                  CONTENTS, READONLY, DEBUGGING
 12 .debug_aranges 00000ab8  00000000  00000000  0001b630  2**3
                  CONTENTS, READONLY, DEBUGGING
 13 .debug_ranges 00000cc0  00000000  00000000  0001c0e8  2**3
                  CONTENTS, READONLY, DEBUGGING
 14 .debug_line   0000d5ae  00000000  00000000  0001cda8  2**0
                  CONTENTS, READONLY, DEBUGGING
 15 .debug_str    00003096  00000000  00000000  0002a356  2**0
                  CONTENTS, READONLY, DEBUGGING
 16 .comment      00000033  00000000  00000000  0002d3ec  2**0
                  CONTENTS, READONLY
 17 .debug_frame  000018f8  00000000  00000000  0002d420  2**2
                  CONTENTS, READONLY, DEBUGGING
 18 .debug_loc    000053d2  00000000  00000000  0002ed18  2**0
                  CONTENTS, READONLY, DEBUGGING
SYMBOL TABLE:
00000000 l    d  .init	00000000 .init
000000a0 l    d  .highcodelalign	00000000 .highcodelalign
20000000 l    d  .highcode	00000000 .highcode
000000a0 l    d  .text	00000000 .text
000033c4 l    d  .fini	00000000 .fini
20000000 l    d  .dalign	00000000 .dalign
000033c4 l    d  .dlalign	00000000 .dlalign
20000000 l    d  .data	00000000 .data
200000e8 l    d  .bss	00000000 .bss
20000700 l    d  .stack	00000000 .stack
00000000 l    d  .debug_info	00000000 .debug_info
00000000 l    d  .debug_abbrev	00000000 .debug_abbrev
00000000 l    d  .debug_aranges	00000000 .debug_aranges
00000000 l    d  .debug_ranges	00000000 .debug_ranges
00000000 l    d  .debug_line	00000000 .debug_line
00000000 l    d  .debug_str	00000000 .debug_str
00000000 l    d  .comment	00000000 .comment
00000000 l    d  .debug_frame	00000000 .debug_frame
00000000 l    d  .debug_loc	00000000 .debug_loc
00000000 l    df *ABS*	00000000 ch32v00x_it.c
00000000 l    df *ABS*	00000000 ili9341.c
00000204 l     F .text	0000003e SPI_send_DMA
00000242 l     F .text	0000001e SPI_send8
00000260 l     F .text	00000030 write_data_8
00000290 l     F .text	00000030 write_command_8
000002da l     F .text	00000034 write_data_16
0000030e l     F .text	0000003a tft_set_window
00000348 l     F .text	00000086 _tft_draw_fast_h_line
000003ce l     F .text	00000086 _tft_draw_fast_v_line
200000e8 l     O .bss	00000002 _bg_color
200000ec l     O .bss	00000100 _buffer
200001ec l     O .bss	00000002 _cursor_x
200001ee l     O .bss	00000002 _cursor_y
20000000 l     O .data	00000002 _color
00002ebc l     O .text	000003b6 font7x10
00000000 l    df *ABS*	00000000 main.c
200000ac l     O .data	00000001 timer2_flag
00000000 l    df *ABS*	00000000 system_ch32v00x.c
00000000 l    df *ABS*	00000000 ch32v00x_adc.c
00000000 l    df *ABS*	00000000 ch32v00x_dbgmcu.c
00000000 l    df *ABS*	00000000 ch32v00x_dma.c
00000000 l    df *ABS*	00000000 ch32v00x_gpio.c
00000000 l    df *ABS*	00000000 ch32v00x_misc.c
00000000 l    df *ABS*	00000000 ch32v00x_rcc.c
200000c4 l     O .data	00000014 ADCPrescTable
200000d8 l     O .data	00000010 APBAHBPrescTable
00000000 l    df *ABS*	00000000 ch32v00x_spi.c
00000000 l    df *ABS*	00000000 ch32v00x_tim.c
00000000 l    df *ABS*	00000000 ch32v00x_usart.c
00000000 l    df *ABS*	00000000 debug.c
20000228 l     O .bss	00000002 p_ms
2000022a l     O .bss	00000001 p_us
00000000 l    df *ABS*	00000000 wchprintf.c
00002b0c  w    F .text	00000004 printDouble
20000208 g     O .bss	00000004 adc_val
000020b6 g     F .text	00000014 DMA_Cmd
000012c2 g     F .text	0000007c scan_hline
20000004 g     O .data	00000026 colors
00002b10  w    F .text	00000360 print
000021d6 g     F .text	0000000a GPIO_ReadOutputDataBit
00002e70  w    F .text	00000024 printf
200008e8 g       .data	00000000 __global_pointer$
000020ea g     F .text	0000000c DMA_GetITStatus
00001d90  w      .text	00000000 TIM1_CC_IRQHandler
000019be g     F .text	0000011e disp_MENU
000001f4 g     F .text	00000010 HardFault_Handler
000029ee  w    F .text	0000011a printInt
00001ec6 g     F .text	00000012 ADC_DMACmd
00002638 g     F .text	0000000e TIM_OC1PreloadConfig
00001d90  w      .text	00000000 SysTick_Handler
00001eea g     F .text	0000000a ADC_StartCalibration
000021ee g     F .text	00000054 NVIC_Init
000002c0 g     F .text	0000001a spi_send16
00001d90  w      .text	00000000 PVD_IRQHandler
20000030 g     O .data	0000007c sine_fdb
000023a0 g     F .text	00000022 SPI_I2S_DeInit
000001f2 g     F .text	00000002 NMI_Handler
00001fe2 g     F .text	0000000a DBGMCU_GetCHIPID
00002612 g     F .text	0000000c TIM_DMACmd
00000656 g     F .text	0000000a tft_set_cursor
00003284 g     O .text	00000010 gamma_p
00002792 g     F .text	0000000a USART_GetFlagStatus
200000e8 g       .bss	00000000 _sbss
00000100 g       *ABS*	00000000 __stack_size
0000280a g     F .text	0000005c USART_Printf_Init
0000207e g     F .text	00000038 DMA_Init
000017c2 g     F .text	000000a2 fill_circ
000000aa g     F .text	0000000a .hidden __riscv_restore_2
00000bae g     F .text	00000104 tft_fill_circle
00000f2c g     F .text	0000006c TIM2_INT_Init
000025ea g     F .text	00000016 TIM_CtrlPWMOutputs
00001eb6 g     F .text	00000010 ADC_Cmd
00002b08  w    F .text	00000004 printLongLongInt
000025d2 g     F .text	00000018 TIM_Cmd
200000c0 g     O .data	00000004 SystemCoreClock
000000d4 g     F .text	0000002c .hidden __udivsi3
000000a0 g       .init	00000000 _einit
00002674 g     F .text	0000000c TIM_ClearITPendingBit
00002328 g     F .text	0000001e RCC_APB2PeriphClockCmd
00001478 g     F .text	00000096 center_rect
0000215a g     F .text	0000007c GPIO_Init
00002254 g     F .text	00000014 RCC_ADCCLKConfig
20000224 g     O .bss	00000004 NVIC_Priority_Group
00001d90  w      .text	00000000 SPI1_IRQHandler
00001ed8 g     F .text	0000000a ADC_ResetCalibration
00002774 g     F .text	00000016 USART_Cmd
00002146 g     F .text	00000014 GPIO_AFIODeInit
000000a0 g     F .text	0000000a .hidden __riscv_save_1
00001fce g     F .text	00000014 ADC_Calibration_Vol
00000768 g     F .text	00000020 tft_print
000000aa g     F .text	0000000a .hidden __riscv_restore_0
00001d90  w      .text	00000000 AWU_IRQHandler
00001d90  w      .text	00000000 EXTI7_0_IRQHandler
000020f6 g     F .text	00000008 DMA_ClearITPendingBit
00002420 g     F .text	00000044 TIM_DeInit
00002346 g     F .text	0000001e RCC_APB1PeriphClockCmd
20000700 g       .stack	00000000 _heap_end
0000150e g     F .text	000000a6 random_rect
00001112 g     F .text	00000042 init_DMA
0000230a g     F .text	0000001e RCC_AHBPeriphClockCmd
00001d90  w      .text	00000000 DMA1_Channel4_IRQHandler
00001f14 g     F .text	000000ba ADC_RegularChannelConfig
00001d90  w      .text	00000000 ADC1_IRQHandler
000020dc g     F .text	0000000e DMA_GetFlagStatus
00001ef4 g     F .text	00000008 ADC_GetCalibrationStatus
2000022c g       .bss	00000000 _ebss
00001d90  w      .text	00000000 DMA1_Channel7_IRQHandler
000024b2 g     F .text	0000006a TIM_OC1Init
00001efc g     F .text	00000018 ADC_SoftwareStartConvCmd
00001ee2 g     F .text	00000008 ADC_GetResetCalibrationStatus
000015b4 g     F .text	000000a6 fill_rect
000013ba g     F .text	000000be random_line
0000279c g     F .text	00000034 Delay_Init
000021e0 g     F .text	00000004 GPIO_SetBits
0000261e g     F .text	0000001a TIM_ARRPreloadConfig
0000066a g     F .text	0000000a tft_set_background_color
00000100 g     F .text	00000008 .hidden __umodsi3
00000a20 g     F .text	0000018e tft_draw_circle
200001f0 g     O .bss	00000016 adc_BUF
00001d90  w      .text	00000000 I2C1_EV_IRQHandler
0000265c g     F .text	00000018 TIM_GetITStatus
00002268 g     F .text	000000a2 RCC_GetClocksFreq
00001d90  w      .text	00000000 DMA1_Channel6_IRQHandler
000026a6 g     F .text	000000ce USART_Init
00001d90  w      .text	00000000 RCC_IRQHandler
00001d90  w      .text	00000000 TIM1_TRG_COM_IRQHandler
00001d90  w      .text	00000000 DMA1_Channel1_IRQHandler
00000000 g       .init	00000000 _start
200000b0 g     O .data	00000010 AHBPrescTable
00001956 g     F .text	00000068 disp_TIM2
00002646 g     F .text	00000016 TIM_OC2PreloadConfig
00002900  w    F .text	000000ee prints
00002600 g     F .text	00000012 TIM_ITConfig
0000251c g     F .text	00000096 TIM_OC2Init
20000000 g       .highcode	00000000 _highcode_vma_start
000000b4 g     F .text	00000014 .hidden __mulsi3
000021e4 g     F .text	00000004 GPIO_ResetBits
20000000 g       .dalign	00000000 _data_vma
00000fec g     F .text	000000c4 init_ADC
00001194 g     F .text	0000012e random_dot
2000020c g     O .bss	00000009 dec_str
2000002c g     O .data	00000004 lfsr
00002680 g     F .text	00000026 USART_DeInit
0000165a g     F .text	000000c6 move_rect
0000014a g     F .text	000000a8 memset
000010b0 g     F .text	00000062 DMA_Tx_Init
00002242 g     F .text	00000012 RCC_AdjustHSICalibrationValue
00001adc g     F .text	00000114 main
0000240e g     F .text	00000012 SPI_I2S_DMACmd
00000ebc g     F .text	00000070 DMA1_Channel5_IRQHandler
000000cc g     F .text	00000058 .hidden __divsi3
000027d0 g     F .text	0000003a Delay_Ms
00000454 g     F .text	00000202 tft_init
000023f4 g     F .text	0000001a SPI_Cmd
00001864 g     F .text	0000002c demo_LCD
000000a0 g       .highcodelalign	00000000 _highcode_lma
00001bf0 g     F .text	00000134 SystemInit
000020fe g     F .text	00000048 GPIO_DeInit
000028b6  w    F .text	0000004a printchar
00002e94 g     F .text	00000028 sprintf
00000000 g       .init	00000000 _sinit
000007bc g     F .text	00000098 tft_fill_rect
00001d90  w      .text	00000000 DMA1_Channel3_IRQHandler
20000218 g     O .bss	00000004 frame
00000f98 g     F .text	00000024 TIM1_UP_IRQHandler
00000788 g     F .text	00000034 tft_draw_pixel
00001d90  w      .text	00000000 WWDG_IRQHandler
00002382 g     F .text	0000001e RCC_APB1PeriphResetCmd
00001720 g     F .text	000000a2 random_circ
000020ca g     F .text	00000012 DMA_ITConfig
00000fbc g     F .text	00000030 TIM2_IRQHandler
20000800 g       .stack	00000000 _eusrstack
000000a0 g     F .text	0000000a .hidden __riscv_save_2
00001d90  w      .text	00000000 SW_Handler
00000cb2 g     F .text	00000176 TIM1_PWMOut_Init
00001e42 g     F .text	00000026 ADC_DeInit
000008cc g     F .text	00000154 tft_draw_line
00001d90  w      .text	00000000 TIM1_BRK_IRQHandler
00001e68 g     F .text	0000004e ADC_Init
0000278a g     F .text	00000008 USART_SendData
00002866 g     F .text	00000050 _write
200000e8 g       .data	00000000 _edata
2000022c g       .bss	00000000 _end
20000000 g       .highcode	00000000 _highcode_vma_end
00002464 g     F .text	0000004e TIM_TimeBaseInit
00000e28 g     F .text	00000094 TIM1_DMA_Init
000033c4 g       .dlalign	00000000 _data_lma
0000133e g     F .text	0000007c scan_vline
2000021c g     O .bss	00000004 mv_val
00001d24 g     F .text	0000006c SystemCoreClockUpdate
00000124 g     F .text	00000024 .hidden __modsi3
00001d90  w      .text	00000000 DMA1_Channel2_IRQHandler
00000854 g     F .text	00000078 tft_draw_rect
000025b2 g     F .text	00000020 TIM_BDTRConfig
00001d92  w      .text	00000000 handle_reset
00001d90  w      .text	00000000 FLASH_IRQHandler
000000a0 g     F .text	0000000a .hidden __riscv_save_0
00001890 g     F .text	000000c6 disp_ADC
00001d90  w      .text	00000000 USART1_IRQHandler
00000660 g     F .text	0000000a tft_set_color
00002364 g     F .text	0000001e RCC_APB2PeriphResetCmd
00001d90  w      .text	00000000 I2C1_ER_IRQHandler
00003274 g     O .text	00000010 gamma_n
000023c2 g     F .text	00000032 SPI_Init
000021e8 g     F .text	00000006 NVIC_PriorityGroupConfig
00000674 g     F .text	000000f4 tft_print_char
00001fec g     F .text	00000092 DMA_DeInit
000000aa g     F .text	0000000a .hidden __riscv_restore_1
20000220 g     O .bss	00000004 timer2_cnt
00001154 g     F .text	00000040 rand16



Disassembly of section .init:

00000000 <_sinit>:
   0:	5930106f          	j	1d92 <handle_reset>
   4:	0000                	unimp
   6:	0000                	unimp
   8:	01f2                	slli	gp,gp,0x1c
   a:	0000                	unimp
   c:	01f4                	addi	a3,sp,204
	...
  2e:	0000                	unimp
  30:	1d90                	addi	a2,sp,752
  32:	0000                	unimp
  34:	0000                	unimp
  36:	0000                	unimp
  38:	1d90                	addi	a2,sp,752
  3a:	0000                	unimp
  3c:	0000                	unimp
  3e:	0000                	unimp
  40:	1d90                	addi	a2,sp,752
  42:	0000                	unimp
  44:	1d90                	addi	a2,sp,752
  46:	0000                	unimp
  48:	1d90                	addi	a2,sp,752
  4a:	0000                	unimp
  4c:	1d90                	addi	a2,sp,752
  4e:	0000                	unimp
  50:	1d90                	addi	a2,sp,752
  52:	0000                	unimp
  54:	1d90                	addi	a2,sp,752
  56:	0000                	unimp
  58:	1d90                	addi	a2,sp,752
  5a:	0000                	unimp
  5c:	1d90                	addi	a2,sp,752
  5e:	0000                	unimp
  60:	1d90                	addi	a2,sp,752
  62:	0000                	unimp
  64:	1d90                	addi	a2,sp,752
  66:	0000                	unimp
  68:	0ebc                	addi	a5,sp,856
  6a:	0000                	unimp
  6c:	1d90                	addi	a2,sp,752
  6e:	0000                	unimp
  70:	1d90                	addi	a2,sp,752
  72:	0000                	unimp
  74:	1d90                	addi	a2,sp,752
  76:	0000                	unimp
  78:	1d90                	addi	a2,sp,752
  7a:	0000                	unimp
  7c:	1d90                	addi	a2,sp,752
  7e:	0000                	unimp
  80:	1d90                	addi	a2,sp,752
  82:	0000                	unimp
  84:	1d90                	addi	a2,sp,752
  86:	0000                	unimp
  88:	1d90                	addi	a2,sp,752
  8a:	0000                	unimp
  8c:	0f98                	addi	a4,sp,976
  8e:	0000                	unimp
  90:	1d90                	addi	a2,sp,752
  92:	0000                	unimp
  94:	1d90                	addi	a2,sp,752
  96:	0000                	unimp
  98:	0fbc                	addi	a5,sp,984
  9a:	0000                	unimp
  9c:	0000                	unimp
	...

Disassembly of section .text:

000000a0 <__riscv_save_0>:
      a0:	1151                	addi	sp,sp,-12
      a2:	c026                	sw	s1,0(sp)
      a4:	c222                	sw	s0,4(sp)
      a6:	c406                	sw	ra,8(sp)
      a8:	8282                	jr	t0

000000aa <__riscv_restore_0>:
      aa:	4482                	lw	s1,0(sp)
      ac:	4412                	lw	s0,4(sp)
      ae:	40a2                	lw	ra,8(sp)
      b0:	0131                	addi	sp,sp,12
      b2:	8082                	ret

000000b4 <__mulsi3>:
      b4:	862a                	mv	a2,a0
      b6:	4501                	li	a0,0
      b8:	0015f693          	andi	a3,a1,1
      bc:	c291                	beqz	a3,c0 <__mulsi3+0xc>
      be:	9532                	add	a0,a0,a2
      c0:	8185                	srli	a1,a1,0x1
      c2:	0606                	slli	a2,a2,0x1
      c4:	f9f5                	bnez	a1,b8 <__mulsi3+0x4>
      c6:	8082                	ret
      c8:	0000                	unimp
	...

000000cc <__divsi3>:
      cc:	02054e63          	bltz	a0,108 <__umodsi3+0x8>
      d0:	0405c363          	bltz	a1,116 <__umodsi3+0x16>

000000d4 <__udivsi3>:
      d4:	862e                	mv	a2,a1
      d6:	85aa                	mv	a1,a0
      d8:	557d                	li	a0,-1
      da:	c215                	beqz	a2,fe <__udivsi3+0x2a>
      dc:	4685                	li	a3,1
      de:	00b67863          	bgeu	a2,a1,ee <__udivsi3+0x1a>
      e2:	00c05663          	blez	a2,ee <__udivsi3+0x1a>
      e6:	0606                	slli	a2,a2,0x1
      e8:	0686                	slli	a3,a3,0x1
      ea:	feb66ce3          	bltu	a2,a1,e2 <__udivsi3+0xe>
      ee:	4501                	li	a0,0
      f0:	00c5e463          	bltu	a1,a2,f8 <__udivsi3+0x24>
      f4:	8d91                	sub	a1,a1,a2
      f6:	8d55                	or	a0,a0,a3
      f8:	8285                	srli	a3,a3,0x1
      fa:	8205                	srli	a2,a2,0x1
      fc:	faf5                	bnez	a3,f0 <__udivsi3+0x1c>
      fe:	8082                	ret

00000100 <__umodsi3>:
     100:	8286                	mv	t0,ra
     102:	3fc9                	jal	d4 <__udivsi3>
     104:	852e                	mv	a0,a1
     106:	8282                	jr	t0
     108:	40a00533          	neg	a0,a0
     10c:	0005d763          	bgez	a1,11a <__umodsi3+0x1a>
     110:	40b005b3          	neg	a1,a1
     114:	b7c1                	j	d4 <__udivsi3>
     116:	40b005b3          	neg	a1,a1
     11a:	8286                	mv	t0,ra
     11c:	3f65                	jal	d4 <__udivsi3>
     11e:	40a00533          	neg	a0,a0
     122:	8282                	jr	t0

00000124 <__modsi3>:
     124:	8286                	mv	t0,ra
     126:	0005c763          	bltz	a1,134 <__modsi3+0x10>
     12a:	00054963          	bltz	a0,13c <__modsi3+0x18>
     12e:	375d                	jal	d4 <__udivsi3>
     130:	852e                	mv	a0,a1
     132:	8282                	jr	t0
     134:	40b005b3          	neg	a1,a1
     138:	fe055be3          	bgez	a0,12e <__modsi3+0xa>
     13c:	40a00533          	neg	a0,a0
     140:	3f51                	jal	d4 <__udivsi3>
     142:	40b00533          	neg	a0,a1
     146:	8282                	jr	t0
	...

0000014a <memset>:
     14a:	433d                	li	t1,15
     14c:	872a                	mv	a4,a0
     14e:	02c37363          	bgeu	t1,a2,174 <memset+0x2a>
     152:	00f77793          	andi	a5,a4,15
     156:	efbd                	bnez	a5,1d4 <memset+0x8a>
     158:	e5ad                	bnez	a1,1c2 <memset+0x78>
     15a:	ff067693          	andi	a3,a2,-16
     15e:	8a3d                	andi	a2,a2,15
     160:	96ba                	add	a3,a3,a4
     162:	c30c                	sw	a1,0(a4)
     164:	c34c                	sw	a1,4(a4)
     166:	c70c                	sw	a1,8(a4)
     168:	c74c                	sw	a1,12(a4)
     16a:	0741                	addi	a4,a4,16
     16c:	fed76be3          	bltu	a4,a3,162 <memset+0x18>
     170:	e211                	bnez	a2,174 <memset+0x2a>
     172:	8082                	ret
     174:	40c306b3          	sub	a3,t1,a2
     178:	068a                	slli	a3,a3,0x2
     17a:	00000297          	auipc	t0,0x0
     17e:	9696                	add	a3,a3,t0
     180:	00a68067          	jr	10(a3)
     184:	00b70723          	sb	a1,14(a4)
     188:	00b706a3          	sb	a1,13(a4)
     18c:	00b70623          	sb	a1,12(a4)
     190:	00b705a3          	sb	a1,11(a4)
     194:	00b70523          	sb	a1,10(a4)
     198:	00b704a3          	sb	a1,9(a4)
     19c:	00b70423          	sb	a1,8(a4)
     1a0:	00b703a3          	sb	a1,7(a4)
     1a4:	00b70323          	sb	a1,6(a4)
     1a8:	00b702a3          	sb	a1,5(a4)
     1ac:	00b70223          	sb	a1,4(a4)
     1b0:	00b701a3          	sb	a1,3(a4)
     1b4:	00b70123          	sb	a1,2(a4)
     1b8:	00b700a3          	sb	a1,1(a4)
     1bc:	00b70023          	sb	a1,0(a4)
     1c0:	8082                	ret
     1c2:	0ff5f593          	andi	a1,a1,255
     1c6:	00859693          	slli	a3,a1,0x8
     1ca:	8dd5                	or	a1,a1,a3
     1cc:	01059693          	slli	a3,a1,0x10
     1d0:	8dd5                	or	a1,a1,a3
     1d2:	b761                	j	15a <memset+0x10>
     1d4:	00279693          	slli	a3,a5,0x2
     1d8:	00000297          	auipc	t0,0x0
     1dc:	9696                	add	a3,a3,t0
     1de:	8286                	mv	t0,ra
     1e0:	fa8680e7          	jalr	-88(a3)
     1e4:	8096                	mv	ra,t0
     1e6:	17c1                	addi	a5,a5,-16
     1e8:	8f1d                	sub	a4,a4,a5
     1ea:	963e                	add	a2,a2,a5
     1ec:	f8c374e3          	bgeu	t1,a2,174 <memset+0x2a>
     1f0:	b7a5                	j	158 <memset+0xe>

000001f2 <NMI_Handler>:
     1f2:	a001                	j	1f2 <NMI_Handler>

000001f4 <HardFault_Handler>:
     1f4:	beef07b7          	lui	a5,0xbeef0
     1f8:	e000e737          	lui	a4,0xe000e
     1fc:	08078793          	addi	a5,a5,128 # beef0080 <__global_pointer$+0x9eeef798>
     200:	c73c                	sw	a5,72(a4)
     202:	a001                	j	202 <HardFault_Handler+0xe>

00000204 <SPI_send_DMA>:
     204:	400207b7          	lui	a5,0x40020
     208:	dfc8                	sw	a0,60(a5)
     20a:	dbcc                	sw	a1,52(a5)
     20c:	40020737          	lui	a4,0x40020
     210:	4781                	li	a5,0
     212:	00c79863          	bne	a5,a2,222 <SPI_send_DMA+0x1e>
     216:	40020737          	lui	a4,0x40020
     21a:	5b1c                	lw	a5,48(a4)
     21c:	9bf9                	andi	a5,a5,-2
     21e:	db1c                	sw	a5,48(a4)
     220:	8082                	ret
     222:	5b14                	lw	a3,48(a4)
     224:	0016e693          	ori	a3,a3,1
     228:	db14                	sw	a3,48(a4)
     22a:	4354                	lw	a3,4(a4)
     22c:	2006e693          	ori	a3,a3,512
     230:	c354                	sw	a3,4(a4)
     232:	4314                	lw	a3,0(a4)
     234:	2006f693          	andi	a3,a3,512
     238:	deed                	beqz	a3,232 <SPI_send_DMA+0x2e>
     23a:	0785                	addi	a5,a5,1
     23c:	07c2                	slli	a5,a5,0x10
     23e:	83c1                	srli	a5,a5,0x10
     240:	bfc9                	j	212 <SPI_send_DMA+0xe>

00000242 <SPI_send8>:
     242:	40013737          	lui	a4,0x40013
     246:	271e                	lhu	a5,8(a4)
     248:	8b89                	andi	a5,a5,2
     24a:	dff5                	beqz	a5,246 <SPI_send8+0x4>
     24c:	0542                	slli	a0,a0,0x10
     24e:	8141                	srli	a0,a0,0x10
     250:	a74a                	sh	a0,12(a4)
     252:	40013737          	lui	a4,0x40013
     256:	271e                	lhu	a5,8(a4)
     258:	0807f793          	andi	a5,a5,128
     25c:	ffed                	bnez	a5,256 <SPI_send8+0x14>
     25e:	8082                	ret

00000260 <write_data_8>:
     260:	e41ff2ef          	jal	t0,a0 <__riscv_save_0>
     264:	40013737          	lui	a4,0x40013
     268:	2316                	lhu	a3,0(a4)
     26a:	77fd                	lui	a5,0xfffff
     26c:	7ff78793          	addi	a5,a5,2047 # fffff7ff <__global_pointer$+0xdfffef17>
     270:	8ff5                	and	a5,a5,a3
     272:	842a                	mv	s0,a0
     274:	a31e                	sh	a5,0(a4)
     276:	45a1                	li	a1,8
     278:	40011537          	lui	a0,0x40011
     27c:	765010ef          	jal	ra,21e0 <GPIO_SetBits>
     280:	45c1                	li	a1,16
     282:	40011537          	lui	a0,0x40011
     286:	75f010ef          	jal	ra,21e4 <GPIO_ResetBits>
     28a:	8522                	mv	a0,s0
     28c:	3f5d                	jal	242 <SPI_send8>
     28e:	bd31                	j	aa <__riscv_restore_0>

00000290 <write_command_8>:
     290:	e11ff2ef          	jal	t0,a0 <__riscv_save_0>
     294:	40013737          	lui	a4,0x40013
     298:	2316                	lhu	a3,0(a4)
     29a:	77fd                	lui	a5,0xfffff
     29c:	7ff78793          	addi	a5,a5,2047 # fffff7ff <__global_pointer$+0xdfffef17>
     2a0:	8ff5                	and	a5,a5,a3
     2a2:	842a                	mv	s0,a0
     2a4:	a31e                	sh	a5,0(a4)
     2a6:	45a1                	li	a1,8
     2a8:	40011537          	lui	a0,0x40011
     2ac:	739010ef          	jal	ra,21e4 <GPIO_ResetBits>
     2b0:	45c1                	li	a1,16
     2b2:	40011537          	lui	a0,0x40011
     2b6:	72f010ef          	jal	ra,21e4 <GPIO_ResetBits>
     2ba:	8522                	mv	a0,s0
     2bc:	3759                	jal	242 <SPI_send8>
     2be:	b3f5                	j	aa <__riscv_restore_0>

000002c0 <spi_send16>:
     2c0:	40013737          	lui	a4,0x40013
     2c4:	271e                	lhu	a5,8(a4)
     2c6:	8b89                	andi	a5,a5,2
     2c8:	dff5                	beqz	a5,2c4 <spi_send16+0x4>
     2ca:	a74a                	sh	a0,12(a4)
     2cc:	40013737          	lui	a4,0x40013
     2d0:	271e                	lhu	a5,8(a4)
     2d2:	0807f793          	andi	a5,a5,128
     2d6:	ffed                	bnez	a5,2d0 <spi_send16+0x10>
     2d8:	8082                	ret

000002da <write_data_16>:
     2da:	dc7ff2ef          	jal	t0,a0 <__riscv_save_0>
     2de:	40013737          	lui	a4,0x40013
     2e2:	2316                	lhu	a3,0(a4)
     2e4:	6785                	lui	a5,0x1
     2e6:	80078793          	addi	a5,a5,-2048 # 800 <tft_fill_rect+0x44>
     2ea:	8fd5                	or	a5,a5,a3
     2ec:	07c2                	slli	a5,a5,0x10
     2ee:	83c1                	srli	a5,a5,0x10
     2f0:	842a                	mv	s0,a0
     2f2:	a31e                	sh	a5,0(a4)
     2f4:	45a1                	li	a1,8
     2f6:	40011537          	lui	a0,0x40011
     2fa:	6e7010ef          	jal	ra,21e0 <GPIO_SetBits>
     2fe:	45c1                	li	a1,16
     300:	40011537          	lui	a0,0x40011
     304:	6e1010ef          	jal	ra,21e4 <GPIO_ResetBits>
     308:	8522                	mv	a0,s0
     30a:	3f5d                	jal	2c0 <spi_send16>
     30c:	bb79                	j	aa <__riscv_restore_0>

0000030e <tft_set_window>:
     30e:	d93ff2ef          	jal	t0,a0 <__riscv_save_0>
     312:	1151                	addi	sp,sp,-12
     314:	842a                	mv	s0,a0
     316:	02a00513          	li	a0,42
     31a:	c036                	sw	a3,0(sp)
     31c:	c42e                	sw	a1,8(sp)
     31e:	c232                	sw	a2,4(sp)
     320:	3f85                	jal	290 <write_command_8>
     322:	8522                	mv	a0,s0
     324:	3f5d                	jal	2da <write_data_16>
     326:	4612                	lw	a2,4(sp)
     328:	8532                	mv	a0,a2
     32a:	3f45                	jal	2da <write_data_16>
     32c:	02b00513          	li	a0,43
     330:	3785                	jal	290 <write_command_8>
     332:	45a2                	lw	a1,8(sp)
     334:	852e                	mv	a0,a1
     336:	3755                	jal	2da <write_data_16>
     338:	4682                	lw	a3,0(sp)
     33a:	8536                	mv	a0,a3
     33c:	3f79                	jal	2da <write_data_16>
     33e:	02c00513          	li	a0,44
     342:	37b9                	jal	290 <write_command_8>
     344:	0131                	addi	sp,sp,12
     346:	b395                	j	aa <__riscv_restore_0>

00000348 <_tft_draw_fast_h_line>:
     348:	d59ff2ef          	jal	t0,a0 <__riscv_save_0>
     34c:	20000437          	lui	s0,0x20000
     350:	832e                	mv	t1,a1
     352:	84b2                	mv	s1,a2
     354:	1161                	addi	sp,sp,-8
     356:	872a                	mv	a4,a0
     358:	0086d593          	srli	a1,a3,0x8
     35c:	0ec40613          	addi	a2,s0,236 # 200000ec <_buffer>
     360:	4781                	li	a5,0
     362:	0497cf63          	blt	a5,s1,3c0 <_tft_draw_fast_h_line+0x78>
     366:	45c1                	li	a1,16
     368:	40011537          	lui	a0,0x40011
     36c:	c21a                	sw	t1,4(sp)
     36e:	c03a                	sw	a4,0(sp)
     370:	675010ef          	jal	ra,21e4 <GPIO_ResetBits>
     374:	4702                	lw	a4,0(sp)
     376:	4312                	lw	t1,4(sp)
     378:	fff48613          	addi	a2,s1,-1
     37c:	01071513          	slli	a0,a4,0x10
     380:	8141                	srli	a0,a0,0x10
     382:	01031693          	slli	a3,t1,0x10
     386:	962a                	add	a2,a2,a0
     388:	82c1                	srli	a3,a3,0x10
     38a:	0642                	slli	a2,a2,0x10
     38c:	85b6                	mv	a1,a3
     38e:	8241                	srli	a2,a2,0x10
     390:	3fbd                	jal	30e <tft_set_window>
     392:	45a1                	li	a1,8
     394:	40011537          	lui	a0,0x40011
     398:	649010ef          	jal	ra,21e0 <GPIO_SetBits>
     39c:	85a6                	mv	a1,s1
     39e:	0004d363          	bgez	s1,3a4 <_tft_draw_fast_h_line+0x5c>
     3a2:	4581                	li	a1,0
     3a4:	0586                	slli	a1,a1,0x1
     3a6:	05c2                	slli	a1,a1,0x10
     3a8:	4605                	li	a2,1
     3aa:	0ec40513          	addi	a0,s0,236
     3ae:	81c1                	srli	a1,a1,0x10
     3b0:	3d91                	jal	204 <SPI_send_DMA>
     3b2:	45c1                	li	a1,16
     3b4:	40011537          	lui	a0,0x40011
     3b8:	629010ef          	jal	ra,21e0 <GPIO_SetBits>
     3bc:	0121                	addi	sp,sp,8
     3be:	b1f5                	j	aa <__riscv_restore_0>
     3c0:	0785                	addi	a5,a5,1
     3c2:	07c2                	slli	a5,a5,0x10
     3c4:	a20c                	sb	a1,0(a2)
     3c6:	b214                	sb	a3,1(a2)
     3c8:	87c1                	srai	a5,a5,0x10
     3ca:	0609                	addi	a2,a2,2
     3cc:	bf59                	j	362 <_tft_draw_fast_h_line+0x1a>

000003ce <_tft_draw_fast_v_line>:
     3ce:	cd3ff2ef          	jal	t0,a0 <__riscv_save_0>
     3d2:	20000437          	lui	s0,0x20000
     3d6:	872e                	mv	a4,a1
     3d8:	84b2                	mv	s1,a2
     3da:	1161                	addi	sp,sp,-8
     3dc:	832a                	mv	t1,a0
     3de:	0086d613          	srli	a2,a3,0x8
     3e2:	0ec40593          	addi	a1,s0,236 # 200000ec <_buffer>
     3e6:	4781                	li	a5,0
     3e8:	0497cf63          	blt	a5,s1,446 <_tft_draw_fast_v_line+0x78>
     3ec:	45c1                	li	a1,16
     3ee:	40011537          	lui	a0,0x40011
     3f2:	c23a                	sw	a4,4(sp)
     3f4:	c01a                	sw	t1,0(sp)
     3f6:	5ef010ef          	jal	ra,21e4 <GPIO_ResetBits>
     3fa:	4712                	lw	a4,4(sp)
     3fc:	4302                	lw	t1,0(sp)
     3fe:	fff48693          	addi	a3,s1,-1
     402:	01071593          	slli	a1,a4,0x10
     406:	81c1                	srli	a1,a1,0x10
     408:	01031613          	slli	a2,t1,0x10
     40c:	96ae                	add	a3,a3,a1
     40e:	8241                	srli	a2,a2,0x10
     410:	06c2                	slli	a3,a3,0x10
     412:	8532                	mv	a0,a2
     414:	82c1                	srli	a3,a3,0x10
     416:	3de5                	jal	30e <tft_set_window>
     418:	45a1                	li	a1,8
     41a:	40011537          	lui	a0,0x40011
     41e:	5c3010ef          	jal	ra,21e0 <GPIO_SetBits>
     422:	85a6                	mv	a1,s1
     424:	0004d363          	bgez	s1,42a <_tft_draw_fast_v_line+0x5c>
     428:	4581                	li	a1,0
     42a:	0586                	slli	a1,a1,0x1
     42c:	05c2                	slli	a1,a1,0x10
     42e:	4605                	li	a2,1
     430:	0ec40513          	addi	a0,s0,236
     434:	81c1                	srli	a1,a1,0x10
     436:	33f9                	jal	204 <SPI_send_DMA>
     438:	45c1                	li	a1,16
     43a:	40011537          	lui	a0,0x40011
     43e:	5a3010ef          	jal	ra,21e0 <GPIO_SetBits>
     442:	0121                	addi	sp,sp,8
     444:	b19d                	j	aa <__riscv_restore_0>
     446:	0785                	addi	a5,a5,1
     448:	07c2                	slli	a5,a5,0x10
     44a:	a190                	sb	a2,0(a1)
     44c:	b194                	sb	a3,1(a1)
     44e:	87c1                	srai	a5,a5,0x10
     450:	0589                	addi	a1,a1,2
     452:	bf59                	j	3e8 <_tft_draw_fast_v_line+0x1a>

00000454 <tft_init>:
     454:	c4dff2ef          	jal	t0,a0 <__riscv_save_0>
     458:	1101                	addi	sp,sp,-32
     45a:	4585                	li	a1,1
     45c:	4541                	li	a0,16
     45e:	c002                	sw	zero,0(sp)
     460:	c202                	sw	zero,4(sp)
     462:	c402                	sw	zero,8(sp)
     464:	c602                	sw	zero,12(sp)
     466:	c802                	sw	zero,16(sp)
     468:	ca02                	sw	zero,20(sp)
     46a:	cc02                	sw	zero,24(sp)
     46c:	00011e23          	sh	zero,28(sp)
     470:	6b9010ef          	jal	ra,2328 <RCC_APB2PeriphClockCmd>
     474:	4585                	li	a1,1
     476:	6505                	lui	a0,0x1
     478:	6b1010ef          	jal	ra,2328 <RCC_APB2PeriphClockCmd>
     47c:	4585                	li	a1,1
     47e:	4505                	li	a0,1
     480:	68b010ef          	jal	ra,230a <RCC_AHBPeriphClockCmd>
     484:	440d                	li	s0,3
     486:	47a1                	li	a5,8
     488:	44c1                	li	s1,16
     48a:	858a                	mv	a1,sp
     48c:	40011537          	lui	a0,0x40011
     490:	807c                	sh	a5,0(sp)
     492:	c426                	sw	s1,8(sp)
     494:	c222                	sw	s0,4(sp)
     496:	4c5010ef          	jal	ra,215a <GPIO_Init>
     49a:	858a                	mv	a1,sp
     49c:	40011537          	lui	a0,0x40011
     4a0:	8064                	sh	s1,0(sp)
     4a2:	c426                	sw	s1,8(sp)
     4a4:	c222                	sw	s0,4(sp)
     4a6:	4b5010ef          	jal	ra,215a <GPIO_Init>
     4aa:	06000793          	li	a5,96
     4ae:	807c                	sh	a5,0(sp)
     4b0:	858a                	mv	a1,sp
     4b2:	47e1                	li	a5,24
     4b4:	40011537          	lui	a0,0x40011
     4b8:	c43e                	sw	a5,8(sp)
     4ba:	c222                	sw	s0,4(sp)
     4bc:	49f010ef          	jal	ra,215a <GPIO_Init>
     4c0:	08000793          	li	a5,128
     4c4:	807c                	sh	a5,0(sp)
     4c6:	858a                	mv	a1,sp
     4c8:	4791                	li	a5,4
     4ca:	40011537          	lui	a0,0x40011
     4ce:	c43e                	sw	a5,8(sp)
     4d0:	c222                	sw	s0,4(sp)
     4d2:	489010ef          	jal	ra,215a <GPIO_Init>
     4d6:	0104c7b7          	lui	a5,0x104c
     4da:	c63e                	sw	a5,12(sp)
     4dc:	020007b7          	lui	a5,0x2000
     4e0:	ca3e                	sw	a5,20(sp)
     4e2:	006c                	addi	a1,sp,12
     4e4:	479d                	li	a5,7
     4e6:	40013537          	lui	a0,0x40013
     4ea:	86fc                	sh	a5,28(sp)
     4ec:	c802                	sw	zero,16(sp)
     4ee:	cc02                	sw	zero,24(sp)
     4f0:	6d3010ef          	jal	ra,23c2 <SPI_Init>
     4f4:	4605                	li	a2,1
     4f6:	4589                	li	a1,2
     4f8:	40013537          	lui	a0,0x40013
     4fc:	713010ef          	jal	ra,240e <SPI_I2S_DMACmd>
     500:	4585                	li	a1,1
     502:	40013537          	lui	a0,0x40013
     506:	6ef010ef          	jal	ra,23f4 <SPI_Cmd>
     50a:	40021737          	lui	a4,0x40021
     50e:	4b5c                	lw	a5,20(a4)
     510:	45c1                	li	a1,16
     512:	40011537          	lui	a0,0x40011
     516:	0017e793          	ori	a5,a5,1
     51a:	cb5c                	sw	a5,20(a4)
     51c:	400207b7          	lui	a5,0x40020
     520:	670d                	lui	a4,0x3
     522:	0b070713          	addi	a4,a4,176 # 30b0 <font7x10+0x1f4>
     526:	0207a823          	sw	zero,48(a5) # 40020030 <__global_pointer$+0x2001f748>
     52a:	03078693          	addi	a3,a5,48
     52e:	db98                	sw	a4,48(a5)
     530:	400137b7          	lui	a5,0x40013
     534:	07b1                	addi	a5,a5,12
     536:	c69c                	sw	a5,8(a3)
     538:	4ad010ef          	jal	ra,21e4 <GPIO_ResetBits>
     53c:	4545                	li	a0,17
     53e:	3b89                	jal	290 <write_command_8>
     540:	07800513          	li	a0,120
     544:	28c020ef          	jal	ra,27d0 <Delay_Ms>
     548:	0c000513          	li	a0,192
     54c:	3391                	jal	290 <write_command_8>
     54e:	02300513          	li	a0,35
     552:	3339                	jal	260 <write_data_8>
     554:	0c100513          	li	a0,193
     558:	3b25                	jal	290 <write_command_8>
     55a:	4541                	li	a0,16
     55c:	3311                	jal	260 <write_data_8>
     55e:	0c500513          	li	a0,197
     562:	333d                	jal	290 <write_command_8>
     564:	03e00513          	li	a0,62
     568:	39e5                	jal	260 <write_data_8>
     56a:	02800513          	li	a0,40
     56e:	39cd                	jal	260 <write_data_8>
     570:	0c700513          	li	a0,199
     574:	3b31                	jal	290 <write_command_8>
     576:	08600513          	li	a0,134
     57a:	31dd                	jal	260 <write_data_8>
     57c:	03600513          	li	a0,54
     580:	3b01                	jal	290 <write_command_8>
     582:	0e800513          	li	a0,232
     586:	39e9                	jal	260 <write_data_8>
     588:	03a00513          	li	a0,58
     58c:	3311                	jal	290 <write_command_8>
     58e:	4515                	li	a0,5
     590:	39c1                	jal	260 <write_data_8>
     592:	03700513          	li	a0,55
     596:	39ed                	jal	290 <write_command_8>
     598:	4501                	li	a0,0
     59a:	31d9                	jal	260 <write_data_8>
     59c:	03a00513          	li	a0,58
     5a0:	39c5                	jal	290 <write_command_8>
     5a2:	05500513          	li	a0,85
     5a6:	396d                	jal	260 <write_data_8>
     5a8:	0b100513          	li	a0,177
     5ac:	31d5                	jal	290 <write_command_8>
     5ae:	4501                	li	a0,0
     5b0:	3945                	jal	260 <write_data_8>
     5b2:	4561                	li	a0,24
     5b4:	3175                	jal	260 <write_data_8>
     5b6:	0b600513          	li	a0,182
     5ba:	39d9                	jal	290 <write_command_8>
     5bc:	4521                	li	a0,8
     5be:	314d                	jal	260 <write_data_8>
     5c0:	08200513          	li	a0,130
     5c4:	3971                	jal	260 <write_data_8>
     5c6:	02700513          	li	a0,39
     5ca:	3959                	jal	260 <write_data_8>
     5cc:	02600513          	li	a0,38
     5d0:	31c1                	jal	290 <write_command_8>
     5d2:	4505                	li	a0,1
     5d4:	3171                	jal	260 <write_data_8>
     5d6:	0e000513          	li	a0,224
     5da:	395d                	jal	290 <write_command_8>
     5dc:	45a1                	li	a1,8
     5de:	40011537          	lui	a0,0x40011
     5e2:	3ff010ef          	jal	ra,21e0 <GPIO_SetBits>
     5e6:	650d                	lui	a0,0x3
     5e8:	4605                	li	a2,1
     5ea:	45c1                	li	a1,16
     5ec:	28450513          	addi	a0,a0,644 # 3284 <gamma_p>
     5f0:	3911                	jal	204 <SPI_send_DMA>
     5f2:	4529                	li	a0,10
     5f4:	1dc020ef          	jal	ra,27d0 <Delay_Ms>
     5f8:	0e100513          	li	a0,225
     5fc:	3951                	jal	290 <write_command_8>
     5fe:	45a1                	li	a1,8
     600:	40011537          	lui	a0,0x40011
     604:	3dd010ef          	jal	ra,21e0 <GPIO_SetBits>
     608:	650d                	lui	a0,0x3
     60a:	4605                	li	a2,1
     60c:	45c1                	li	a1,16
     60e:	27450513          	addi	a0,a0,628 # 3274 <gamma_n>
     612:	3ecd                	jal	204 <SPI_send_DMA>
     614:	4529                	li	a0,10
     616:	1ba020ef          	jal	ra,27d0 <Delay_Ms>
     61a:	0b100513          	li	a0,177
     61e:	398d                	jal	290 <write_command_8>
     620:	0a000513          	li	a0,160
     624:	3935                	jal	260 <write_data_8>
     626:	02000513          	li	a0,32
     62a:	319d                	jal	290 <write_command_8>
     62c:	454d                	li	a0,19
     62e:	318d                	jal	290 <write_command_8>
     630:	4529                	li	a0,10
     632:	19e020ef          	jal	ra,27d0 <Delay_Ms>
     636:	02900513          	li	a0,41
     63a:	3999                	jal	290 <write_command_8>
     63c:	4529                	li	a0,10
     63e:	192020ef          	jal	ra,27d0 <Delay_Ms>
     642:	02c00513          	li	a0,44
     646:	31a9                	jal	290 <write_command_8>
     648:	45c1                	li	a1,16
     64a:	40011537          	lui	a0,0x40011
     64e:	393010ef          	jal	ra,21e0 <GPIO_SetBits>
     652:	6105                	addi	sp,sp,32
     654:	bc99                	j	aa <__riscv_restore_0>

00000656 <tft_set_cursor>:
     656:	90a19223          	sh	a0,-1788(gp) # 200001ec <_cursor_x>
     65a:	90b19323          	sh	a1,-1786(gp) # 200001ee <_cursor_y>
     65e:	8082                	ret

00000660 <tft_set_color>:
     660:	200007b7          	lui	a5,0x20000
     664:	00a79023          	sh	a0,0(a5) # 20000000 <_highcode_vma_end>
     668:	8082                	ret

0000066a <tft_set_background_color>:
     66a:	200007b7          	lui	a5,0x20000
     66e:	0ea79423          	sh	a0,232(a5) # 200000e8 <_edata>
     672:	8082                	ret

00000674 <tft_print_char>:
     674:	1501                	addi	a0,a0,-32
     676:	0ff57713          	andi	a4,a0,255
     67a:	05e00793          	li	a5,94
     67e:	0ee7e463          	bltu	a5,a4,766 <tft_print_char+0xf2>
     682:	a1fff2ef          	jal	t0,a0 <__riscv_save_0>
     686:	200007b7          	lui	a5,0x20000
     68a:	0e87d603          	lhu	a2,232(a5) # 200000e8 <_edata>
     68e:	1151                	addi	sp,sp,-12
     690:	20000437          	lui	s0,0x20000
     694:	00865793          	srli	a5,a2,0x8
     698:	c43e                	sw	a5,8(sp)
     69a:	200007b7          	lui	a5,0x20000
     69e:	0007d783          	lhu	a5,0(a5) # 20000000 <_highcode_vma_end>
     6a2:	0ff67613          	andi	a2,a2,255
     6a6:	4681                	li	a3,0
     6a8:	0087d713          	srli	a4,a5,0x8
     6ac:	0ff7f793          	andi	a5,a5,255
     6b0:	c23e                	sw	a5,4(sp)
     6b2:	00251793          	slli	a5,a0,0x2
     6b6:	97aa                	add	a5,a5,a0
     6b8:	650d                	lui	a0,0x3
     6ba:	0786                	slli	a5,a5,0x1
     6bc:	ebc50513          	addi	a0,a0,-324 # 2ebc <font7x10>
     6c0:	c03a                	sw	a4,0(sp)
     6c2:	953e                	add	a0,a0,a5
     6c4:	0ec40593          	addi	a1,s0,236 # 200000ec <_buffer>
     6c8:	50fd                	li	ra,-1
     6ca:	2104                	lbu	s1,0(a0)
     6cc:	82b6                	mv	t0,a3
     6ce:	4319                	li	t1,6
     6d0:	4064d3b3          	sra	t2,s1,t1
     6d4:	8716                	mv	a4,t0
     6d6:	00128793          	addi	a5,t0,1 # 1d9 <memset+0x8f>
     6da:	0013f393          	andi	t2,t2,1
     6de:	0289                	addi	t0,t0,2
     6e0:	0ff7f793          	andi	a5,a5,255
     6e4:	0ff2f293          	andi	t0,t0,255
     6e8:	972e                	add	a4,a4,a1
     6ea:	06038863          	beqz	t2,75a <tft_print_char+0xe6>
     6ee:	4382                	lw	t2,0(sp)
     6f0:	97ae                	add	a5,a5,a1
     6f2:	00770023          	sb	t2,0(a4)
     6f6:	4712                	lw	a4,4(sp)
     6f8:	a398                	sb	a4,0(a5)
     6fa:	137d                	addi	t1,t1,-1
     6fc:	fc131ae3          	bne	t1,ra,6d0 <tft_print_char+0x5c>
     700:	06b9                	addi	a3,a3,14
     702:	0ff6f693          	andi	a3,a3,255
     706:	08c00793          	li	a5,140
     70a:	0505                	addi	a0,a0,1
     70c:	faf69fe3          	bne	a3,a5,6ca <tft_print_char+0x56>
     710:	9041d503          	lhu	a0,-1788(gp) # 200001ec <_cursor_x>
     714:	9061d583          	lhu	a1,-1786(gp) # 200001ee <_cursor_y>
     718:	00650613          	addi	a2,a0,6
     71c:	0642                	slli	a2,a2,0x10
     71e:	00958693          	addi	a3,a1,9
     722:	06c2                	slli	a3,a3,0x10
     724:	82c1                	srli	a3,a3,0x10
     726:	8241                	srli	a2,a2,0x10
     728:	36dd                	jal	30e <tft_set_window>
     72a:	45c1                	li	a1,16
     72c:	40011537          	lui	a0,0x40011
     730:	2b5010ef          	jal	ra,21e4 <GPIO_ResetBits>
     734:	45a1                	li	a1,8
     736:	40011537          	lui	a0,0x40011
     73a:	2a7010ef          	jal	ra,21e0 <GPIO_SetBits>
     73e:	4605                	li	a2,1
     740:	0ec40513          	addi	a0,s0,236
     744:	08c00593          	li	a1,140
     748:	3c75                	jal	204 <SPI_send_DMA>
     74a:	45c1                	li	a1,16
     74c:	40011537          	lui	a0,0x40011
     750:	291010ef          	jal	ra,21e0 <GPIO_SetBits>
     754:	0131                	addi	sp,sp,12
     756:	955ff06f          	j	aa <__riscv_restore_0>
     75a:	43a2                	lw	t2,8(sp)
     75c:	97ae                	add	a5,a5,a1
     75e:	00770023          	sb	t2,0(a4)
     762:	a390                	sb	a2,0(a5)
     764:	bf59                	j	6fa <tft_print_char+0x86>
     766:	8082                	ret

00000768 <tft_print>:
     768:	939ff2ef          	jal	t0,a0 <__riscv_save_0>
     76c:	842a                	mv	s0,a0
     76e:	00040503          	lb	a0,0(s0)
     772:	e119                	bnez	a0,778 <tft_print+0x10>
     774:	937ff06f          	j	aa <__riscv_restore_0>
     778:	3df5                	jal	674 <tft_print_char>
     77a:	90418713          	addi	a4,gp,-1788 # 200001ec <_cursor_x>
     77e:	231e                	lhu	a5,0(a4)
     780:	0405                	addi	s0,s0,1
     782:	07a1                	addi	a5,a5,8
     784:	a31e                	sh	a5,0(a4)
     786:	b7e5                	j	76e <tft_print+0x6>

00000788 <tft_draw_pixel>:
     788:	919ff2ef          	jal	t0,a0 <__riscv_save_0>
     78c:	1171                	addi	sp,sp,-4
     78e:	84aa                	mv	s1,a0
     790:	c02e                	sw	a1,0(sp)
     792:	40011537          	lui	a0,0x40011
     796:	45c1                	li	a1,16
     798:	8432                	mv	s0,a2
     79a:	24b010ef          	jal	ra,21e4 <GPIO_ResetBits>
     79e:	4682                	lw	a3,0(sp)
     7a0:	8626                	mv	a2,s1
     7a2:	8526                	mv	a0,s1
     7a4:	85b6                	mv	a1,a3
     7a6:	36a5                	jal	30e <tft_set_window>
     7a8:	8522                	mv	a0,s0
     7aa:	3e05                	jal	2da <write_data_16>
     7ac:	45c1                	li	a1,16
     7ae:	40011537          	lui	a0,0x40011
     7b2:	22f010ef          	jal	ra,21e0 <GPIO_SetBits>
     7b6:	0111                	addi	sp,sp,4
     7b8:	8f3ff06f          	j	aa <__riscv_restore_0>

000007bc <tft_fill_rect>:
     7bc:	8e5ff2ef          	jal	t0,a0 <__riscv_save_0>
     7c0:	200003b7          	lui	t2,0x20000
     7c4:	82ae                	mv	t0,a1
     7c6:	84b6                	mv	s1,a3
     7c8:	1151                	addi	sp,sp,-12
     7ca:	832a                	mv	t1,a0
     7cc:	00875593          	srli	a1,a4,0x8
     7d0:	4781                	li	a5,0
     7d2:	0ec38693          	addi	a3,t2,236 # 200000ec <_buffer>
     7d6:	00179413          	slli	s0,a5,0x1
     7da:	0442                	slli	s0,s0,0x10
     7dc:	8041                	srli	s0,s0,0x10
     7de:	04c79f63          	bne	a5,a2,83c <tft_fill_rect+0x80>
     7e2:	45c1                	li	a1,16
     7e4:	40011537          	lui	a0,0x40011
     7e8:	c416                	sw	t0,8(sp)
     7ea:	c21a                	sw	t1,4(sp)
     7ec:	c03e                	sw	a5,0(sp)
     7ee:	1f7010ef          	jal	ra,21e4 <GPIO_ResetBits>
     7f2:	4782                	lw	a5,0(sp)
     7f4:	42a2                	lw	t0,8(sp)
     7f6:	4312                	lw	t1,4(sp)
     7f8:	fff78613          	addi	a2,a5,-1
     7fc:	fff48693          	addi	a3,s1,-1
     800:	9696                	add	a3,a3,t0
     802:	961a                	add	a2,a2,t1
     804:	06c2                	slli	a3,a3,0x10
     806:	0642                	slli	a2,a2,0x10
     808:	8596                	mv	a1,t0
     80a:	851a                	mv	a0,t1
     80c:	82c1                	srli	a3,a3,0x10
     80e:	8241                	srli	a2,a2,0x10
     810:	3cfd                	jal	30e <tft_set_window>
     812:	45a1                	li	a1,8
     814:	40011537          	lui	a0,0x40011
     818:	1c9010ef          	jal	ra,21e0 <GPIO_SetBits>
     81c:	200003b7          	lui	t2,0x20000
     820:	0ec38513          	addi	a0,t2,236 # 200000ec <_buffer>
     824:	8626                	mv	a2,s1
     826:	85a2                	mv	a1,s0
     828:	9ddff0ef          	jal	ra,204 <SPI_send_DMA>
     82c:	45c1                	li	a1,16
     82e:	40011537          	lui	a0,0x40011
     832:	1af010ef          	jal	ra,21e0 <GPIO_SetBits>
     836:	0131                	addi	sp,sp,12
     838:	873ff06f          	j	aa <__riscv_restore_0>
     83c:	00868533          	add	a0,a3,s0
     840:	0405                	addi	s0,s0,1
     842:	0442                	slli	s0,s0,0x10
     844:	8041                	srli	s0,s0,0x10
     846:	0785                	addi	a5,a5,1
     848:	a10c                	sb	a1,0(a0)
     84a:	9436                	add	s0,s0,a3
     84c:	07c2                	slli	a5,a5,0x10
     84e:	a018                	sb	a4,0(s0)
     850:	83c1                	srli	a5,a5,0x10
     852:	b751                	j	7d6 <tft_fill_rect+0x1a>

00000854 <tft_draw_rect>:
     854:	84dff2ef          	jal	t0,a0 <__riscv_save_0>
     858:	84ba                	mv	s1,a4
     85a:	01051713          	slli	a4,a0,0x10
     85e:	1121                	addi	sp,sp,-24
     860:	8741                	srai	a4,a4,0x10
     862:	c03a                	sw	a4,0(sp)
     864:	ca2a                	sw	a0,20(sp)
     866:	01059713          	slli	a4,a1,0x10
     86a:	4502                	lw	a0,0(sp)
     86c:	01061393          	slli	t2,a2,0x10
     870:	8741                	srai	a4,a4,0x10
     872:	4103d393          	srai	t2,t2,0x10
     876:	8436                	mv	s0,a3
     878:	c82e                	sw	a1,16(sp)
     87a:	c632                	sw	a2,12(sp)
     87c:	85ba                	mv	a1,a4
     87e:	86a6                	mv	a3,s1
     880:	861e                	mv	a2,t2
     882:	c23a                	sw	a4,4(sp)
     884:	c41e                	sw	t2,8(sp)
     886:	34c9                	jal	348 <_tft_draw_fast_h_line>
     888:	4342                	lw	t1,16(sp)
     88a:	43a2                	lw	t2,8(sp)
     88c:	fff40593          	addi	a1,s0,-1
     890:	959a                	add	a1,a1,t1
     892:	4502                	lw	a0,0(sp)
     894:	05c2                	slli	a1,a1,0x10
     896:	861e                	mv	a2,t2
     898:	86a6                	mv	a3,s1
     89a:	85c1                	srai	a1,a1,0x10
     89c:	3475                	jal	348 <_tft_draw_fast_h_line>
     89e:	4712                	lw	a4,4(sp)
     8a0:	4502                	lw	a0,0(sp)
     8a2:	0442                	slli	s0,s0,0x10
     8a4:	8441                	srai	s0,s0,0x10
     8a6:	86a6                	mv	a3,s1
     8a8:	8622                	mv	a2,s0
     8aa:	85ba                	mv	a1,a4
     8ac:	360d                	jal	3ce <_tft_draw_fast_v_line>
     8ae:	47b2                	lw	a5,12(sp)
     8b0:	42d2                	lw	t0,20(sp)
     8b2:	4712                	lw	a4,4(sp)
     8b4:	fff78513          	addi	a0,a5,-1
     8b8:	9516                	add	a0,a0,t0
     8ba:	0542                	slli	a0,a0,0x10
     8bc:	86a6                	mv	a3,s1
     8be:	8622                	mv	a2,s0
     8c0:	85ba                	mv	a1,a4
     8c2:	8541                	srai	a0,a0,0x10
     8c4:	3629                	jal	3ce <_tft_draw_fast_v_line>
     8c6:	0161                	addi	sp,sp,24
     8c8:	fe2ff06f          	j	aa <__riscv_restore_0>

000008cc <tft_draw_line>:
     8cc:	fd4ff2ef          	jal	t0,a0 <__riscv_save_0>
     8d0:	fdc10113          	addi	sp,sp,-36
     8d4:	842a                	mv	s0,a0
     8d6:	02c51363          	bne	a0,a2,8fc <tft_draw_line+0x30>
     8da:	00b6d563          	bge	a3,a1,8e4 <tft_draw_line+0x18>
     8de:	87ae                	mv	a5,a1
     8e0:	85b6                	mv	a1,a3
     8e2:	86be                	mv	a3,a5
     8e4:	0685                	addi	a3,a3,1
     8e6:	40b68633          	sub	a2,a3,a1
     8ea:	0642                	slli	a2,a2,0x10
     8ec:	86ba                	mv	a3,a4
     8ee:	8641                	srai	a2,a2,0x10
     8f0:	8522                	mv	a0,s0
     8f2:	3cf1                	jal	3ce <_tft_draw_fast_v_line>
     8f4:	02410113          	addi	sp,sp,36
     8f8:	fb2ff06f          	j	aa <__riscv_restore_0>
     8fc:	84b2                	mv	s1,a2
     8fe:	02d59063          	bne	a1,a3,91e <tft_draw_line+0x52>
     902:	00a65463          	bge	a2,a0,90a <tft_draw_line+0x3e>
     906:	8432                	mv	s0,a2
     908:	84aa                	mv	s1,a0
     90a:	00148613          	addi	a2,s1,1
     90e:	8e01                	sub	a2,a2,s0
     910:	0642                	slli	a2,a2,0x10
     912:	86ba                	mv	a3,a4
     914:	8641                	srai	a2,a2,0x10
     916:	8522                	mv	a0,s0
     918:	a31ff0ef          	jal	ra,348 <_tft_draw_fast_h_line>
     91c:	bfe1                	j	8f4 <tft_draw_line+0x28>
     91e:	40d583b3          	sub	t2,a1,a3
     922:	00d5d463          	bge	a1,a3,92a <tft_draw_line+0x5e>
     926:	40b683b3          	sub	t2,a3,a1
     92a:	0a945763          	bge	s0,s1,9d8 <tft_draw_line+0x10c>
     92e:	408482b3          	sub	t0,s1,s0
     932:	0a72cd63          	blt	t0,t2,9ec <tft_draw_line+0x120>
     936:	87ae                	mv	a5,a1
     938:	85a2                	mv	a1,s0
     93a:	843e                	mv	s0,a5
     93c:	40b487b3          	sub	a5,s1,a1
     940:	07c2                	slli	a5,a5,0x10
     942:	83c1                	srli	a5,a5,0x10
     944:	c03e                	sw	a5,0(sp)
     946:	01041613          	slli	a2,s0,0x10
     94a:	01069513          	slli	a0,a3,0x10
     94e:	00011783          	lh	a5,0(sp)
     952:	8241                	srli	a2,a2,0x10
     954:	8141                	srli	a0,a0,0x10
     956:	0ad45763          	bge	s0,a3,a04 <tft_draw_line+0x138>
     95a:	40c50633          	sub	a2,a0,a2
     95e:	0642                	slli	a2,a2,0x10
     960:	8641                	srai	a2,a2,0x10
     962:	c232                	sw	a2,4(sp)
     964:	4605                	li	a2,1
     966:	c432                	sw	a2,8(sp)
     968:	8785                	srai	a5,a5,0x1
     96a:	00d44463          	blt	s0,a3,972 <tft_draw_line+0xa6>
     96e:	56fd                	li	a3,-1
     970:	c436                	sw	a3,8(sp)
     972:	f8b4c1e3          	blt	s1,a1,8f4 <tft_draw_line+0x28>
     976:	01041313          	slli	t1,s0,0x10
     97a:	01059693          	slli	a3,a1,0x10
     97e:	d03e                	sw	a5,32(sp)
     980:	ce1e                	sw	t2,28(sp)
     982:	cc16                	sw	t0,24(sp)
     984:	ca3a                	sw	a4,20(sp)
     986:	01035313          	srli	t1,t1,0x10
     98a:	82c1                	srli	a3,a3,0x10
     98c:	863a                	mv	a2,a4
     98e:	0672dd63          	bge	t0,t2,a08 <tft_draw_line+0x13c>
     992:	85b6                	mv	a1,a3
     994:	851a                	mv	a0,t1
     996:	c836                	sw	a3,16(sp)
     998:	c61a                	sw	t1,12(sp)
     99a:	33fd                	jal	788 <tft_draw_pixel>
     99c:	4332                	lw	t1,12(sp)
     99e:	46c2                	lw	a3,16(sp)
     9a0:	4752                	lw	a4,20(sp)
     9a2:	42e2                	lw	t0,24(sp)
     9a4:	43f2                	lw	t2,28(sp)
     9a6:	5782                	lw	a5,32(sp)
     9a8:	4612                	lw	a2,4(sp)
     9aa:	8f91                	sub	a5,a5,a2
     9ac:	01079613          	slli	a2,a5,0x10
     9b0:	8241                	srli	a2,a2,0x10
     9b2:	01061793          	slli	a5,a2,0x10
     9b6:	87c1                	srai	a5,a5,0x10
     9b8:	0007db63          	bgez	a5,9ce <tft_draw_line+0x102>
     9bc:	4782                	lw	a5,0(sp)
     9be:	97b2                	add	a5,a5,a2
     9c0:	4622                	lw	a2,8(sp)
     9c2:	07c2                	slli	a5,a5,0x10
     9c4:	87c1                	srai	a5,a5,0x10
     9c6:	00c30433          	add	s0,t1,a2
     9ca:	0442                	slli	s0,s0,0x10
     9cc:	8441                	srai	s0,s0,0x10
     9ce:	00168593          	addi	a1,a3,1
     9d2:	05c2                	slli	a1,a1,0x10
     9d4:	85c1                	srai	a1,a1,0x10
     9d6:	bf71                	j	972 <tft_draw_line+0xa6>
     9d8:	409402b3          	sub	t0,s0,s1
     9dc:	0072c863          	blt	t0,t2,9ec <tft_draw_line+0x120>
     9e0:	87b6                	mv	a5,a3
     9e2:	86a6                	mv	a3,s1
     9e4:	84be                	mv	s1,a5
     9e6:	87ae                	mv	a5,a1
     9e8:	85a2                	mv	a1,s0
     9ea:	843e                	mv	s0,a5
     9ec:	00b6d863          	bge	a3,a1,9fc <tft_draw_line+0x130>
     9f0:	87ae                	mv	a5,a1
     9f2:	85b6                	mv	a1,a3
     9f4:	86a2                	mv	a3,s0
     9f6:	8426                	mv	s0,s1
     9f8:	84be                	mv	s1,a5
     9fa:	b789                	j	93c <tft_draw_line+0x70>
     9fc:	87a6                	mv	a5,s1
     9fe:	84b6                	mv	s1,a3
     a00:	86be                	mv	a3,a5
     a02:	bf2d                	j	93c <tft_draw_line+0x70>
     a04:	8e09                	sub	a2,a2,a0
     a06:	bfa1                	j	95e <tft_draw_line+0x92>
     a08:	859a                	mv	a1,t1
     a0a:	8536                	mv	a0,a3
     a0c:	c81a                	sw	t1,16(sp)
     a0e:	c636                	sw	a3,12(sp)
     a10:	3ba5                	jal	788 <tft_draw_pixel>
     a12:	5782                	lw	a5,32(sp)
     a14:	43f2                	lw	t2,28(sp)
     a16:	42e2                	lw	t0,24(sp)
     a18:	4752                	lw	a4,20(sp)
     a1a:	4342                	lw	t1,16(sp)
     a1c:	46b2                	lw	a3,12(sp)
     a1e:	b769                	j	9a8 <tft_draw_line+0xdc>

00000a20 <tft_draw_circle>:
     a20:	e80ff2ef          	jal	t0,a0 <__riscv_save_0>
     a24:	01061793          	slli	a5,a2,0x10
     a28:	83c1                	srli	a5,a5,0x10
     a2a:	4705                	li	a4,1
     a2c:	8f1d                	sub	a4,a4,a5
     a2e:	8436                	mv	s0,a3
     a30:	0742                	slli	a4,a4,0x10
     a32:	40f006b3          	neg	a3,a5
     a36:	fdc10113          	addi	sp,sp,-36
     a3a:	0686                	slli	a3,a3,0x1
     a3c:	8741                	srai	a4,a4,0x10
     a3e:	c43a                	sw	a4,8(sp)
     a40:	01059493          	slli	s1,a1,0x10
     a44:	01069713          	slli	a4,a3,0x10
     a48:	80c1                	srli	s1,s1,0x10
     a4a:	8741                	srai	a4,a4,0x10
     a4c:	009785b3          	add	a1,a5,s1
     a50:	c63a                	sw	a4,12(sp)
     a52:	01051713          	slli	a4,a0,0x10
     a56:	8341                	srli	a4,a4,0x10
     a58:	05c2                	slli	a1,a1,0x10
     a5a:	853a                	mv	a0,a4
     a5c:	c832                	sw	a2,16(sp)
     a5e:	81c1                	srli	a1,a1,0x10
     a60:	8622                	mv	a2,s0
     a62:	c03a                	sw	a4,0(sp)
     a64:	c23e                	sw	a5,4(sp)
     a66:	330d                	jal	788 <tft_draw_pixel>
     a68:	4792                	lw	a5,4(sp)
     a6a:	4502                	lw	a0,0(sp)
     a6c:	8622                	mv	a2,s0
     a6e:	40f485b3          	sub	a1,s1,a5
     a72:	05c2                	slli	a1,a1,0x10
     a74:	81c1                	srli	a1,a1,0x10
     a76:	3b09                	jal	788 <tft_draw_pixel>
     a78:	4702                	lw	a4,0(sp)
     a7a:	4792                	lw	a5,4(sp)
     a7c:	8622                	mv	a2,s0
     a7e:	85a6                	mv	a1,s1
     a80:	00e78533          	add	a0,a5,a4
     a84:	0542                	slli	a0,a0,0x10
     a86:	8141                	srli	a0,a0,0x10
     a88:	3301                	jal	788 <tft_draw_pixel>
     a8a:	4702                	lw	a4,0(sp)
     a8c:	4792                	lw	a5,4(sp)
     a8e:	8622                	mv	a2,s0
     a90:	85a6                	mv	a1,s1
     a92:	40f70533          	sub	a0,a4,a5
     a96:	0542                	slli	a0,a0,0x10
     a98:	8141                	srli	a0,a0,0x10
     a9a:	31fd                	jal	788 <tft_draw_pixel>
     a9c:	4722                	lw	a4,8(sp)
     a9e:	4342                	lw	t1,16(sp)
     aa0:	4781                	li	a5,0
     aa2:	0067c663          	blt	a5,t1,aae <tft_draw_circle+0x8e>
     aa6:	02410113          	addi	sp,sp,36
     aaa:	e00ff06f          	j	aa <__riscv_restore_0>
     aae:	02074163          	bltz	a4,ad0 <tft_draw_circle+0xb0>
     ab2:	46b2                	lw	a3,12(sp)
     ab4:	137d                	addi	t1,t1,-1
     ab6:	0342                	slli	t1,t1,0x10
     ab8:	0689                	addi	a3,a3,2
     aba:	06c2                	slli	a3,a3,0x10
     abc:	82c1                	srli	a3,a3,0x10
     abe:	01069613          	slli	a2,a3,0x10
     ac2:	9736                	add	a4,a4,a3
     ac4:	8641                	srai	a2,a2,0x10
     ac6:	0742                	slli	a4,a4,0x10
     ac8:	41035313          	srai	t1,t1,0x10
     acc:	c632                	sw	a2,12(sp)
     ace:	8741                	srai	a4,a4,0x10
     ad0:	0785                	addi	a5,a5,1
     ad2:	07c2                	slli	a5,a5,0x10
     ad4:	83c1                	srli	a5,a5,0x10
     ad6:	c23e                	sw	a5,4(sp)
     ad8:	0786                	slli	a5,a5,0x1
     ada:	0785                	addi	a5,a5,1
     adc:	973e                	add	a4,a4,a5
     ade:	0742                	slli	a4,a4,0x10
     ae0:	8741                	srai	a4,a4,0x10
     ae2:	4782                	lw	a5,0(sp)
     ae4:	d03a                	sw	a4,32(sp)
     ae6:	4712                	lw	a4,4(sp)
     ae8:	8622                	mv	a2,s0
     aea:	ce1a                	sw	t1,28(sp)
     aec:	00e782b3          	add	t0,a5,a4
     af0:	01031793          	slli	a5,t1,0x10
     af4:	83c1                	srli	a5,a5,0x10
     af6:	00f486b3          	add	a3,s1,a5
     afa:	02c2                	slli	t0,t0,0x10
     afc:	06c2                	slli	a3,a3,0x10
     afe:	0102d293          	srli	t0,t0,0x10
     b02:	82c1                	srli	a3,a3,0x10
     b04:	8516                	mv	a0,t0
     b06:	85b6                	mv	a1,a3
     b08:	cc16                	sw	t0,24(sp)
     b0a:	c43e                	sw	a5,8(sp)
     b0c:	c836                	sw	a3,16(sp)
     b0e:	39ad                	jal	788 <tft_draw_pixel>
     b10:	4712                	lw	a4,4(sp)
     b12:	4782                	lw	a5,0(sp)
     b14:	46c2                	lw	a3,16(sp)
     b16:	8622                	mv	a2,s0
     b18:	8f99                	sub	a5,a5,a4
     b1a:	07c2                	slli	a5,a5,0x10
     b1c:	83c1                	srli	a5,a5,0x10
     b1e:	85b6                	mv	a1,a3
     b20:	853e                	mv	a0,a5
     b22:	ca3e                	sw	a5,20(sp)
     b24:	3195                	jal	788 <tft_draw_pixel>
     b26:	47a2                	lw	a5,8(sp)
     b28:	42e2                	lw	t0,24(sp)
     b2a:	8622                	mv	a2,s0
     b2c:	40f486b3          	sub	a3,s1,a5
     b30:	06c2                	slli	a3,a3,0x10
     b32:	82c1                	srli	a3,a3,0x10
     b34:	8516                	mv	a0,t0
     b36:	85b6                	mv	a1,a3
     b38:	c836                	sw	a3,16(sp)
     b3a:	31b9                	jal	788 <tft_draw_pixel>
     b3c:	46c2                	lw	a3,16(sp)
     b3e:	47d2                	lw	a5,20(sp)
     b40:	8622                	mv	a2,s0
     b42:	85b6                	mv	a1,a3
     b44:	853e                	mv	a0,a5
     b46:	3189                	jal	788 <tft_draw_pixel>
     b48:	4782                	lw	a5,0(sp)
     b4a:	4722                	lw	a4,8(sp)
     b4c:	8622                	mv	a2,s0
     b4e:	00e782b3          	add	t0,a5,a4
     b52:	4792                	lw	a5,4(sp)
     b54:	02c2                	slli	t0,t0,0x10
     b56:	0102d293          	srli	t0,t0,0x10
     b5a:	00f486b3          	add	a3,s1,a5
     b5e:	06c2                	slli	a3,a3,0x10
     b60:	82c1                	srli	a3,a3,0x10
     b62:	8516                	mv	a0,t0
     b64:	85b6                	mv	a1,a3
     b66:	ca16                	sw	t0,20(sp)
     b68:	c836                	sw	a3,16(sp)
     b6a:	3939                	jal	788 <tft_draw_pixel>
     b6c:	4722                	lw	a4,8(sp)
     b6e:	4782                	lw	a5,0(sp)
     b70:	46c2                	lw	a3,16(sp)
     b72:	8622                	mv	a2,s0
     b74:	8f99                	sub	a5,a5,a4
     b76:	07c2                	slli	a5,a5,0x10
     b78:	83c1                	srli	a5,a5,0x10
     b7a:	85b6                	mv	a1,a3
     b7c:	853e                	mv	a0,a5
     b7e:	c83e                	sw	a5,16(sp)
     b80:	3121                	jal	788 <tft_draw_pixel>
     b82:	4792                	lw	a5,4(sp)
     b84:	42d2                	lw	t0,20(sp)
     b86:	8622                	mv	a2,s0
     b88:	40f486b3          	sub	a3,s1,a5
     b8c:	06c2                	slli	a3,a3,0x10
     b8e:	82c1                	srli	a3,a3,0x10
     b90:	85b6                	mv	a1,a3
     b92:	8516                	mv	a0,t0
     b94:	c436                	sw	a3,8(sp)
     b96:	3ecd                	jal	788 <tft_draw_pixel>
     b98:	47c2                	lw	a5,16(sp)
     b9a:	46a2                	lw	a3,8(sp)
     b9c:	8622                	mv	a2,s0
     b9e:	853e                	mv	a0,a5
     ba0:	85b6                	mv	a1,a3
     ba2:	36dd                	jal	788 <tft_draw_pixel>
     ba4:	00411783          	lh	a5,4(sp)
     ba8:	5702                	lw	a4,32(sp)
     baa:	4372                	lw	t1,28(sp)
     bac:	bddd                	j	aa2 <tft_draw_circle+0x82>

00000bae <tft_fill_circle>:
     bae:	cf2ff2ef          	jal	t0,a0 <__riscv_save_0>
     bb2:	fd810113          	addi	sp,sp,-40
     bb6:	c236                	sw	a3,4(sp)
     bb8:	00161713          	slli	a4,a2,0x1
     bbc:	4685                	li	a3,1
     bbe:	40e68733          	sub	a4,a3,a4
     bc2:	01059413          	slli	s0,a1,0x10
     bc6:	c03a                	sw	a4,0(sp)
     bc8:	832a                	mv	t1,a0
     bca:	87b2                	mv	a5,a2
     bcc:	c42a                	sw	a0,8(sp)
     bce:	4681                	li	a3,0
     bd0:	4701                	li	a4,0
     bd2:	8041                	srli	s0,s0,0x10
     bd4:	00171613          	slli	a2,a4,0x1
     bd8:	c632                	sw	a2,12(sp)
     bda:	00e7d663          	bge	a5,a4,be6 <tft_fill_circle+0x38>
     bde:	02810113          	addi	sp,sp,40
     be2:	cc8ff06f          	j	aa <__riscv_restore_0>
     be6:	40f304b3          	sub	s1,t1,a5
     bea:	00f30633          	add	a2,t1,a5
     bee:	02965c63          	bge	a2,s1,c26 <tft_fill_circle+0x78>
     bf2:	01079493          	slli	s1,a5,0x10
     bf6:	40e302b3          	sub	t0,t1,a4
     bfa:	80c1                	srli	s1,s1,0x10
     bfc:	4622                	lw	a2,8(sp)
     bfe:	06565863          	bge	a2,t0,c6e <tft_fill_circle+0xc0>
     c02:	4632                	lw	a2,12(sp)
     c04:	4582                	lw	a1,0(sp)
     c06:	0705                	addi	a4,a4,1
     c08:	96b2                	add	a3,a3,a2
     c0a:	00169613          	slli	a2,a3,0x1
     c0e:	962e                	add	a2,a2,a1
     c10:	00c05763          	blez	a2,c1e <tft_fill_circle+0x70>
     c14:	00258613          	addi	a2,a1,2
     c18:	17fd                	addi	a5,a5,-1
     c1a:	96ae                	add	a3,a3,a1
     c1c:	c032                	sw	a2,0(sp)
     c1e:	4622                	lw	a2,8(sp)
     c20:	0605                	addi	a2,a2,1
     c22:	c432                	sw	a2,8(sp)
     c24:	bf45                	j	bd4 <tft_fill_circle+0x26>
     c26:	01071293          	slli	t0,a4,0x10
     c2a:	0102d293          	srli	t0,t0,0x10
     c2e:	005405b3          	add	a1,s0,t0
     c32:	01049393          	slli	t2,s1,0x10
     c36:	4612                	lw	a2,4(sp)
     c38:	0103d393          	srli	t2,t2,0x10
     c3c:	05c2                	slli	a1,a1,0x10
     c3e:	851e                	mv	a0,t2
     c40:	81c1                	srli	a1,a1,0x10
     c42:	d21a                	sw	t1,36(sp)
     c44:	d036                	sw	a3,32(sp)
     c46:	ce3e                	sw	a5,28(sp)
     c48:	cc3a                	sw	a4,24(sp)
     c4a:	ca16                	sw	t0,20(sp)
     c4c:	c81e                	sw	t2,16(sp)
     c4e:	3e2d                	jal	788 <tft_draw_pixel>
     c50:	42d2                	lw	t0,20(sp)
     c52:	43c2                	lw	t2,16(sp)
     c54:	4612                	lw	a2,4(sp)
     c56:	405405b3          	sub	a1,s0,t0
     c5a:	05c2                	slli	a1,a1,0x10
     c5c:	81c1                	srli	a1,a1,0x10
     c5e:	851e                	mv	a0,t2
     c60:	3625                	jal	788 <tft_draw_pixel>
     c62:	0485                	addi	s1,s1,1
     c64:	5312                	lw	t1,36(sp)
     c66:	5682                	lw	a3,32(sp)
     c68:	47f2                	lw	a5,28(sp)
     c6a:	4762                	lw	a4,24(sp)
     c6c:	bfbd                	j	bea <tft_fill_circle+0x3c>
     c6e:	01029393          	slli	t2,t0,0x10
     c72:	4612                	lw	a2,4(sp)
     c74:	008485b3          	add	a1,s1,s0
     c78:	0103d393          	srli	t2,t2,0x10
     c7c:	05c2                	slli	a1,a1,0x10
     c7e:	851e                	mv	a0,t2
     c80:	81c1                	srli	a1,a1,0x10
     c82:	d21a                	sw	t1,36(sp)
     c84:	d03a                	sw	a4,32(sp)
     c86:	ce36                	sw	a3,28(sp)
     c88:	cc3e                	sw	a5,24(sp)
     c8a:	ca16                	sw	t0,20(sp)
     c8c:	c81e                	sw	t2,16(sp)
     c8e:	afbff0ef          	jal	ra,788 <tft_draw_pixel>
     c92:	43c2                	lw	t2,16(sp)
     c94:	409405b3          	sub	a1,s0,s1
     c98:	4612                	lw	a2,4(sp)
     c9a:	05c2                	slli	a1,a1,0x10
     c9c:	81c1                	srli	a1,a1,0x10
     c9e:	851e                	mv	a0,t2
     ca0:	ae9ff0ef          	jal	ra,788 <tft_draw_pixel>
     ca4:	42d2                	lw	t0,20(sp)
     ca6:	5312                	lw	t1,36(sp)
     ca8:	5702                	lw	a4,32(sp)
     caa:	0285                	addi	t0,t0,1
     cac:	46f2                	lw	a3,28(sp)
     cae:	47e2                	lw	a5,24(sp)
     cb0:	b7b1                	j	bfc <tft_fill_circle+0x4e>

00000cb2 <TIM1_PWMOut_Init>:
     cb2:	beeff2ef          	jal	t0,a0 <__riscv_save_0>
     cb6:	fbc10113          	addi	sp,sp,-68
     cba:	c42a                	sw	a0,8(sp)
     cbc:	84ae                	mv	s1,a1
     cbe:	4511                	li	a0,4
     cc0:	4585                	li	a1,1
     cc2:	c232                	sw	a2,4(sp)
     cc4:	cc02                	sw	zero,24(sp)
     cc6:	ce02                	sw	zero,28(sp)
     cc8:	d002                	sw	zero,32(sp)
     cca:	da02                	sw	zero,52(sp)
     ccc:	dc02                	sw	zero,56(sp)
     cce:	de02                	sw	zero,60(sp)
     cd0:	c082                	sw	zero,64(sp)
     cd2:	c602                	sw	zero,12(sp)
     cd4:	c802                	sw	zero,16(sp)
     cd6:	00011a23          	sh	zero,20(sp)
     cda:	d202                	sw	zero,36(sp)
     cdc:	d402                	sw	zero,40(sp)
     cde:	d602                	sw	zero,44(sp)
     ce0:	02011823          	sh	zero,48(sp)
     ce4:	644010ef          	jal	ra,2328 <RCC_APB2PeriphClockCmd>
     ce8:	4585                	li	a1,1
     cea:	4541                	li	a0,16
     cec:	63c010ef          	jal	ra,2328 <RCC_APB2PeriphClockCmd>
     cf0:	4585                	li	a1,1
     cf2:	02000513          	li	a0,32
     cf6:	632010ef          	jal	ra,2328 <RCC_APB2PeriphClockCmd>
     cfa:	6505                	lui	a0,0x1
     cfc:	4585                	li	a1,1
     cfe:	80050513          	addi	a0,a0,-2048 # 800 <tft_fill_rect+0x44>
     d02:	626010ef          	jal	ra,2328 <RCC_APB2PeriphClockCmd>
     d06:	4709                	li	a4,2
     d08:	440d                	li	s0,3
     d0a:	84f8                	sh	a4,24(sp)
     d0c:	082c                	addi	a1,sp,24
     d0e:	4741                	li	a4,16
     d10:	40011537          	lui	a0,0x40011
     d14:	d03a                	sw	a4,32(sp)
     d16:	ce22                	sw	s0,28(sp)
     d18:	442010ef          	jal	ra,215a <GPIO_Init>
     d1c:	4589                	li	a1,2
     d1e:	40011537          	lui	a0,0x40011
     d22:	4be010ef          	jal	ra,21e0 <GPIO_SetBits>
     d26:	4711                	li	a4,4
     d28:	02800693          	li	a3,40
     d2c:	082c                	addi	a1,sp,24
     d2e:	40011537          	lui	a0,0x40011
     d32:	84f8                	sh	a4,24(sp)
     d34:	c03a                	sw	a4,0(sp)
     d36:	d036                	sw	a3,32(sp)
     d38:	ce22                	sw	s0,28(sp)
     d3a:	420010ef          	jal	ra,215a <GPIO_Init>
     d3e:	4695                	li	a3,5
     d40:	84f4                	sh	a3,24(sp)
     d42:	400116b7          	lui	a3,0x40011
     d46:	4361                	li	t1,24
     d48:	082c                	addi	a1,sp,24
     d4a:	40068513          	addi	a0,a3,1024 # 40011400 <__global_pointer$+0x20010b18>
     d4e:	d01a                	sw	t1,32(sp)
     d50:	ce22                	sw	s0,28(sp)
     d52:	408010ef          	jal	ra,215a <GPIO_Init>
     d56:	400116b7          	lui	a3,0x40011
     d5a:	4599                	li	a1,6
     d5c:	4361                	li	t1,24
     d5e:	80068513          	addi	a0,a3,-2048 # 40010800 <__global_pointer$+0x2000ff18>
     d62:	84ec                	sh	a1,24(sp)
     d64:	082c                	addi	a1,sp,24
     d66:	d01a                	sw	t1,32(sp)
     d68:	ce22                	sw	s0,28(sp)
     d6a:	40013437          	lui	s0,0x40013
     d6e:	3ec010ef          	jal	ra,215a <GPIO_Init>
     d72:	c0040513          	addi	a0,s0,-1024 # 40012c00 <__global_pointer$+0x20012318>
     d76:	6aa010ef          	jal	ra,2420 <TIM_DeInit>
     d7a:	47a2                	lw	a5,8(sp)
     d7c:	006c                	addi	a1,sp,12
     d7e:	c0040513          	addi	a0,s0,-1024
     d82:	17fd                	addi	a5,a5,-1
     d84:	14fd                	addi	s1,s1,-1
     d86:	80fc                	sh	a5,16(sp)
     d88:	8664                	sh	s1,12(sp)
     d8a:	00011923          	sh	zero,18(sp)
     d8e:	00011723          	sh	zero,14(sp)
     d92:	00010a23          	sb	zero,20(sp)
     d96:	6ce010ef          	jal	ra,2464 <TIM_TimeBaseInit>
     d9a:	67c1                	lui	a5,0x10
     d9c:	07078793          	addi	a5,a5,112 # 10070 <_data_lma+0xccac>
     da0:	4702                	lw	a4,0(sp)
     da2:	4612                	lw	a2,4(sp)
     da4:	da3e                	sw	a5,52(sp)
     da6:	000807b7          	lui	a5,0x80
     daa:	0789                	addi	a5,a5,2
     dac:	de3e                	sw	a5,60(sp)
     dae:	184c                	addi	a1,sp,52
     db0:	10000793          	li	a5,256
     db4:	c0040513          	addi	a0,s0,-1024
     db8:	02e11c23          	sh	a4,56(sp)
     dbc:	02c11d23          	sh	a2,58(sp)
     dc0:	c0be                	sw	a5,64(sp)
     dc2:	6f0010ef          	jal	ra,24b2 <TIM_OC1Init>
     dc6:	184c                	addi	a1,sp,52
     dc8:	c0040513          	addi	a0,s0,-1024
     dcc:	750010ef          	jal	ra,251c <TIM_OC2Init>
     dd0:	00c807b7          	lui	a5,0xc80
     dd4:	d43e                	sw	a5,40(sp)
     dd6:	200017b7          	lui	a5,0x20001
     dda:	d63e                	sw	a5,44(sp)
     ddc:	104c                	addi	a1,sp,36
     dde:	6791                	lui	a5,0x4
     de0:	c0040513          	addi	a0,s0,-1024
     de4:	02f11823          	sh	a5,48(sp)
     de8:	d202                	sw	zero,36(sp)
     dea:	7c8010ef          	jal	ra,25b2 <TIM_BDTRConfig>
     dee:	c0040513          	addi	a0,s0,-1024
     df2:	4585                	li	a1,1
     df4:	7f6010ef          	jal	ra,25ea <TIM_CtrlPWMOutputs>
     df8:	c0040513          	addi	a0,s0,-1024
     dfc:	4581                	li	a1,0
     dfe:	03b010ef          	jal	ra,2638 <TIM_OC1PreloadConfig>
     e02:	c0040513          	addi	a0,s0,-1024
     e06:	4581                	li	a1,0
     e08:	03f010ef          	jal	ra,2646 <TIM_OC2PreloadConfig>
     e0c:	c0040513          	addi	a0,s0,-1024
     e10:	4585                	li	a1,1
     e12:	00d010ef          	jal	ra,261e <TIM_ARRPreloadConfig>
     e16:	4585                	li	a1,1
     e18:	c0040513          	addi	a0,s0,-1024
     e1c:	7b6010ef          	jal	ra,25d2 <TIM_Cmd>
     e20:	04410113          	addi	sp,sp,68
     e24:	a86ff06f          	j	aa <__riscv_restore_0>

00000e28 <TIM1_DMA_Init>:
     e28:	a78ff2ef          	jal	t0,a0 <__riscv_save_0>
     e2c:	fc410113          	addi	sp,sp,-60
     e30:	842a                	mv	s0,a0
     e32:	c22e                	sw	a1,4(sp)
     e34:	84b2                	mv	s1,a2
     e36:	4581                	li	a1,0
     e38:	02c00613          	li	a2,44
     e3c:	0808                	addi	a0,sp,16
     e3e:	c036                	sw	a3,0(sp)
     e40:	b0aff0ef          	jal	ra,14a <memset>
     e44:	4585                	li	a1,1
     e46:	4505                	li	a0,1
     e48:	c402                	sw	zero,8(sp)
     e4a:	c602                	sw	zero,12(sp)
     e4c:	4be010ef          	jal	ra,230a <RCC_AHBPeriphClockCmd>
     e50:	8522                	mv	a0,s0
     e52:	19a010ef          	jal	ra,1fec <DMA_DeInit>
     e56:	4792                	lw	a5,4(sp)
     e58:	4682                	lw	a3,0(sp)
     e5a:	080c                	addi	a1,sp,16
     e5c:	c83e                	sw	a5,16(sp)
     e5e:	47c1                	li	a5,16
     e60:	cc3e                	sw	a5,24(sp)
     e62:	08000793          	li	a5,128
     e66:	d23e                	sw	a5,36(sp)
     e68:	10000793          	li	a5,256
     e6c:	d43e                	sw	a5,40(sp)
     e6e:	40000793          	li	a5,1024
     e72:	d63e                	sw	a5,44(sp)
     e74:	8522                	mv	a0,s0
     e76:	678d                	lui	a5,0x3
     e78:	ce36                	sw	a3,28(sp)
     e7a:	da3e                	sw	a5,52(sp)
     e7c:	ca26                	sw	s1,20(sp)
     e7e:	d002                	sw	zero,32(sp)
     e80:	d802                	sw	zero,48(sp)
     e82:	dc02                	sw	zero,56(sp)
     e84:	1fa010ef          	jal	ra,207e <DMA_Init>
     e88:	4585                	li	a1,1
     e8a:	8522                	mv	a0,s0
     e8c:	22a010ef          	jal	ra,20b6 <DMA_Cmd>
     e90:	11a00793          	li	a5,282
     e94:	847c                	sh	a5,8(sp)
     e96:	4789                	li	a5,2
     e98:	855c                	sb	a5,10(sp)
     e9a:	0028                	addi	a0,sp,8
     e9c:	4785                	li	a5,1
     e9e:	c63e                	sw	a5,12(sp)
     ea0:	34e010ef          	jal	ra,21ee <NVIC_Init>
     ea4:	40020537          	lui	a0,0x40020
     ea8:	4605                	li	a2,1
     eaa:	4589                	li	a1,2
     eac:	05850513          	addi	a0,a0,88 # 40020058 <__global_pointer$+0x2001f770>
     eb0:	21a010ef          	jal	ra,20ca <DMA_ITConfig>
     eb4:	03c10113          	addi	sp,sp,60
     eb8:	9f2ff06f          	j	aa <__riscv_restore_0>

00000ebc <DMA1_Channel5_IRQHandler>:
     ebc:	1171                	addi	sp,sp,-4
     ebe:	00020537          	lui	a0,0x20
     ec2:	c022                	sw	s0,0(sp)
     ec4:	226010ef          	jal	ra,20ea <DMA_GetITStatus>
     ec8:	c129                	beqz	a0,f0a <DMA1_Channel5_IRQHandler+0x4e>
     eca:	4589                	li	a1,2
     ecc:	40011537          	lui	a0,0x40011
     ed0:	306010ef          	jal	ra,21d6 <GPIO_ReadOutputDataBit>
     ed4:	4785                	li	a5,1
     ed6:	20000437          	lui	s0,0x20000
     eda:	4589                	li	a1,2
     edc:	02f51b63          	bne	a0,a5,f12 <DMA1_Channel5_IRQHandler+0x56>
     ee0:	40011537          	lui	a0,0x40011
     ee4:	300010ef          	jal	ra,21e4 <GPIO_ResetBits>
     ee8:	400135b7          	lui	a1,0x40013
     eec:	03e00693          	li	a3,62
     ef0:	03040613          	addi	a2,s0,48 # 20000030 <sine_fdb>
     ef4:	c3858593          	addi	a1,a1,-968 # 40012c38 <__global_pointer$+0x20012350>
     ef8:	40020537          	lui	a0,0x40020
     efc:	05850513          	addi	a0,a0,88 # 40020058 <__global_pointer$+0x2001f770>
     f00:	3725                	jal	e28 <TIM1_DMA_Init>
     f02:	00020537          	lui	a0,0x20
     f06:	1f0010ef          	jal	ra,20f6 <DMA_ClearITPendingBit>
     f0a:	4402                	lw	s0,0(sp)
     f0c:	0111                	addi	sp,sp,4
     f0e:	30200073          	mret
     f12:	40011537          	lui	a0,0x40011
     f16:	2ca010ef          	jal	ra,21e0 <GPIO_SetBits>
     f1a:	400135b7          	lui	a1,0x40013
     f1e:	03e00693          	li	a3,62
     f22:	03040613          	addi	a2,s0,48
     f26:	c3458593          	addi	a1,a1,-972 # 40012c34 <__global_pointer$+0x2001234c>
     f2a:	b7f9                	j	ef8 <DMA1_Channel5_IRQHandler+0x3c>

00000f2c <TIM2_INT_Init>:
     f2c:	974ff2ef          	jal	t0,a0 <__riscv_save_0>
     f30:	1131                	addi	sp,sp,-20
     f32:	84aa                	mv	s1,a0
     f34:	842e                	mv	s0,a1
     f36:	4505                	li	a0,1
     f38:	4585                	li	a1,1
     f3a:	40c010ef          	jal	ra,2346 <RCC_APB1PeriphClockCmd>
     f3e:	40000537          	lui	a0,0x40000
     f42:	4de010ef          	jal	ra,2420 <TIM_DeInit>
     f46:	002c                	addi	a1,sp,8
     f48:	14fd                	addi	s1,s1,-1
     f4a:	147d                	addi	s0,s0,-1
     f4c:	40000537          	lui	a0,0x40000
     f50:	8664                	sh	s1,12(sp)
     f52:	8460                	sh	s0,8(sp)
     f54:	00011523          	sh	zero,10(sp)
     f58:	00011723          	sh	zero,14(sp)
     f5c:	508010ef          	jal	ra,2464 <TIM_TimeBaseInit>
     f60:	4605                	li	a2,1
     f62:	4585                	li	a1,1
     f64:	40000537          	lui	a0,0x40000
     f68:	698010ef          	jal	ra,2600 <TIM_ITConfig>
     f6c:	52600793          	li	a5,1318
     f70:	4405                	li	s0,1
     f72:	807c                	sh	a5,0(sp)
     f74:	850a                	mv	a0,sp
     f76:	4795                	li	a5,5
     f78:	815c                	sb	a5,2(sp)
     f7a:	c222                	sw	s0,4(sp)
     f7c:	272010ef          	jal	ra,21ee <NVIC_Init>
     f80:	4585                	li	a1,1
     f82:	40000537          	lui	a0,0x40000
     f86:	64c010ef          	jal	ra,25d2 <TIM_Cmd>
     f8a:	200007b7          	lui	a5,0x20000
     f8e:	0a878623          	sb	s0,172(a5) # 200000ac <timer2_flag>
     f92:	0151                	addi	sp,sp,20
     f94:	916ff06f          	j	aa <__riscv_restore_0>

00000f98 <TIM1_UP_IRQHandler>:
     f98:	1171                	addi	sp,sp,-4
     f9a:	c022                	sw	s0,0(sp)
     f9c:	40013437          	lui	s0,0x40013
     fa0:	4585                	li	a1,1
     fa2:	c0040513          	addi	a0,s0,-1024 # 40012c00 <__global_pointer$+0x20012318>
     fa6:	6b6010ef          	jal	ra,265c <TIM_GetITStatus>
     faa:	c0040513          	addi	a0,s0,-1024
     fae:	4585                	li	a1,1
     fb0:	6c4010ef          	jal	ra,2674 <TIM_ClearITPendingBit>
     fb4:	4402                	lw	s0,0(sp)
     fb6:	0111                	addi	sp,sp,4
     fb8:	30200073          	mret

00000fbc <TIM2_IRQHandler>:
     fbc:	4585                	li	a1,1
     fbe:	40000537          	lui	a0,0x40000
     fc2:	69a010ef          	jal	ra,265c <TIM_GetITStatus>
     fc6:	4785                	li	a5,1
     fc8:	02f51063          	bne	a0,a5,fe8 <TIM2_IRQHandler+0x2c>
     fcc:	4581                	li	a1,0
     fce:	40000537          	lui	a0,0x40000
     fd2:	600010ef          	jal	ra,25d2 <TIM_Cmd>
     fd6:	200007b7          	lui	a5,0x20000
     fda:	4585                	li	a1,1
     fdc:	40000537          	lui	a0,0x40000
     fe0:	0a078623          	sb	zero,172(a5) # 200000ac <timer2_flag>
     fe4:	690010ef          	jal	ra,2674 <TIM_ClearITPendingBit>
     fe8:	30200073          	mret

00000fec <init_ADC>:
     fec:	8b4ff2ef          	jal	t0,a0 <__riscv_save_0>
     ff0:	fdc10113          	addi	sp,sp,-36
     ff4:	4661                	li	a2,24
     ff6:	4581                	li	a1,0
     ff8:	0068                	addi	a0,sp,12
     ffa:	c002                	sw	zero,0(sp)
     ffc:	c202                	sw	zero,4(sp)
     ffe:	c402                	sw	zero,8(sp)
    1000:	94aff0ef          	jal	ra,14a <memset>
    1004:	4585                	li	a1,1
    1006:	02000513          	li	a0,32
    100a:	31e010ef          	jal	ra,2328 <RCC_APB2PeriphClockCmd>
    100e:	4585                	li	a1,1
    1010:	20000513          	li	a0,512
    1014:	314010ef          	jal	ra,2328 <RCC_APB2PeriphClockCmd>
    1018:	6531                	lui	a0,0xc
    101a:	40012437          	lui	s0,0x40012
    101e:	236010ef          	jal	ra,2254 <RCC_ADCCLKConfig>
    1022:	40040513          	addi	a0,s0,1024 # 40012400 <__global_pointer$+0x20011b18>
    1026:	61d000ef          	jal	ra,1e42 <ADC_DeInit>
    102a:	40011537          	lui	a0,0x40011
    102e:	47c1                	li	a5,16
    1030:	858a                	mv	a1,sp
    1032:	40050513          	addi	a0,a0,1024 # 40011400 <__global_pointer$+0x20010b18>
    1036:	807c                	sh	a5,0(sp)
    1038:	c402                	sw	zero,8(sp)
    103a:	120010ef          	jal	ra,215a <GPIO_Init>
    103e:	4785                	li	a5,1
    1040:	000e0737          	lui	a4,0xe0
    1044:	006c                	addi	a1,sp,12
    1046:	40040513          	addi	a0,s0,1024
    104a:	ca3e                	sw	a5,20(sp)
    104c:	cc3a                	sw	a4,24(sp)
    104e:	02f10023          	sb	a5,32(sp)
    1052:	c602                	sw	zero,12(sp)
    1054:	c802                	sw	zero,16(sp)
    1056:	ce02                	sw	zero,28(sp)
    1058:	611000ef          	jal	ra,1e68 <ADC_Init>
    105c:	020005b7          	lui	a1,0x2000
    1060:	40040513          	addi	a0,s0,1024
    1064:	76b000ef          	jal	ra,1fce <ADC_Calibration_Vol>
    1068:	4585                	li	a1,1
    106a:	40040513          	addi	a0,s0,1024
    106e:	659000ef          	jal	ra,1ec6 <ADC_DMACmd>
    1072:	4585                	li	a1,1
    1074:	40040513          	addi	a0,s0,1024
    1078:	63f000ef          	jal	ra,1eb6 <ADC_Cmd>
    107c:	40040513          	addi	a0,s0,1024
    1080:	659000ef          	jal	ra,1ed8 <ADC_ResetCalibration>
    1084:	40040493          	addi	s1,s0,1024
    1088:	8526                	mv	a0,s1
    108a:	659000ef          	jal	ra,1ee2 <ADC_GetResetCalibrationStatus>
    108e:	fd6d                	bnez	a0,1088 <init_ADC+0x9c>
    1090:	40040513          	addi	a0,s0,1024
    1094:	40012437          	lui	s0,0x40012
    1098:	653000ef          	jal	ra,1eea <ADC_StartCalibration>
    109c:	40040413          	addi	s0,s0,1024 # 40012400 <__global_pointer$+0x20011b18>
    10a0:	8522                	mv	a0,s0
    10a2:	653000ef          	jal	ra,1ef4 <ADC_GetCalibrationStatus>
    10a6:	fd6d                	bnez	a0,10a0 <init_ADC+0xb4>
    10a8:	02410113          	addi	sp,sp,36
    10ac:	ffffe06f          	j	aa <__riscv_restore_0>

000010b0 <DMA_Tx_Init>:
    10b0:	ff1fe2ef          	jal	t0,a0 <__riscv_save_0>
    10b4:	fcc10113          	addi	sp,sp,-52
    10b8:	842a                	mv	s0,a0
    10ba:	c22e                	sw	a1,4(sp)
    10bc:	84b2                	mv	s1,a2
    10be:	4581                	li	a1,0
    10c0:	02c00613          	li	a2,44
    10c4:	0028                	addi	a0,sp,8
    10c6:	c036                	sw	a3,0(sp)
    10c8:	882ff0ef          	jal	ra,14a <memset>
    10cc:	4585                	li	a1,1
    10ce:	4505                	li	a0,1
    10d0:	23a010ef          	jal	ra,230a <RCC_AHBPeriphClockCmd>
    10d4:	8522                	mv	a0,s0
    10d6:	717000ef          	jal	ra,1fec <DMA_DeInit>
    10da:	4792                	lw	a5,4(sp)
    10dc:	4682                	lw	a3,0(sp)
    10de:	002c                	addi	a1,sp,8
    10e0:	c43e                	sw	a5,8(sp)
    10e2:	08000793          	li	a5,128
    10e6:	ce3e                	sw	a5,28(sp)
    10e8:	10000793          	li	a5,256
    10ec:	d03e                	sw	a5,32(sp)
    10ee:	40000793          	li	a5,1024
    10f2:	d23e                	sw	a5,36(sp)
    10f4:	8522                	mv	a0,s0
    10f6:	678d                	lui	a5,0x3
    10f8:	c626                	sw	s1,12(sp)
    10fa:	ca36                	sw	a3,20(sp)
    10fc:	d63e                	sw	a5,44(sp)
    10fe:	c802                	sw	zero,16(sp)
    1100:	cc02                	sw	zero,24(sp)
    1102:	d402                	sw	zero,40(sp)
    1104:	d802                	sw	zero,48(sp)
    1106:	779000ef          	jal	ra,207e <DMA_Init>
    110a:	03410113          	addi	sp,sp,52
    110e:	f9dfe06f          	j	aa <__riscv_restore_0>

00001112 <init_DMA>:
    1112:	f8ffe2ef          	jal	t0,a0 <__riscv_save_0>
    1116:	40012437          	lui	s0,0x40012
    111a:	400204b7          	lui	s1,0x40020
    111e:	46a9                	li	a3,10
    1120:	90818613          	addi	a2,gp,-1784 # 200001f0 <adc_BUF>
    1124:	44c40593          	addi	a1,s0,1100 # 4001244c <__global_pointer$+0x20011b64>
    1128:	00848513          	addi	a0,s1,8 # 40020008 <__global_pointer$+0x2001f720>
    112c:	3751                	jal	10b0 <DMA_Tx_Init>
    112e:	00848513          	addi	a0,s1,8
    1132:	4585                	li	a1,1
    1134:	783000ef          	jal	ra,20b6 <DMA_Cmd>
    1138:	468d                	li	a3,3
    113a:	4605                	li	a2,1
    113c:	40040513          	addi	a0,s0,1024
    1140:	459d                	li	a1,7
    1142:	5d3000ef          	jal	ra,1f14 <ADC_RegularChannelConfig>
    1146:	4585                	li	a1,1
    1148:	40040513          	addi	a0,s0,1024
    114c:	5b1000ef          	jal	ra,1efc <ADC_SoftwareStartConvCmd>
    1150:	f5bfe06f          	j	aa <__riscv_restore_0>

00001154 <rand16>:
    1154:	200007b7          	lui	a5,0x20000
    1158:	02c7a503          	lw	a0,44(a5) # 2000002c <lfsr>
    115c:	46a1                	li	a3,8
    115e:	02c78713          	addi	a4,a5,44
    1162:	00b55613          	srli	a2,a0,0xb
    1166:	01f55793          	srli	a5,a0,0x1f
    116a:	8fb1                	xor	a5,a5,a2
    116c:	8fa9                	xor	a5,a5,a0
    116e:	00155613          	srli	a2,a0,0x1
    1172:	8fb1                	xor	a5,a5,a2
    1174:	8b85                	andi	a5,a5,1
    1176:	0506                	slli	a0,a0,0x1
    1178:	8d5d                	or	a0,a0,a5
    117a:	fff68793          	addi	a5,a3,-1
    117e:	01079693          	slli	a3,a5,0x10
    1182:	82c1                	srli	a3,a3,0x10
    1184:	fef9                	bnez	a3,1162 <rand16+0xe>
    1186:	c308                	sw	a0,0(a4)
    1188:	0ff57513          	andi	a0,a0,255
    118c:	00151793          	slli	a5,a0,0x1
    1190:	953e                	add	a0,a0,a5
    1192:	8082                	ret

00001194 <random_dot>:
    1194:	f0dfe2ef          	jal	t0,a0 <__riscv_save_0>
    1198:	0f000693          	li	a3,240
    119c:	1151                	addi	sp,sp,-12
    119e:	4701                	li	a4,0
    11a0:	14000613          	li	a2,320
    11a4:	4581                	li	a1,0
    11a6:	4501                	li	a0,0
    11a8:	e14ff0ef          	jal	ra,7bc <tft_fill_rect>
    11ac:	65b1                	lui	a1,0xc
    11ae:	b8058593          	addi	a1,a1,-1152 # bb80 <_data_lma+0x87bc>
    11b2:	3e800513          	li	a0,1000
    11b6:	3b9d                	jal	f2c <TIM2_INT_Init>
    11b8:	200006b7          	lui	a3,0x20000
    11bc:	0ac6c783          	lbu	a5,172(a3) # 200000ac <timer2_flag>
    11c0:	e781                	bnez	a5,11c8 <random_dot+0x34>
    11c2:	0131                	addi	sp,sp,12
    11c4:	ee7fe06f          	j	aa <__riscv_restore_0>
    11c8:	200004b7          	lui	s1,0x20000
    11cc:	14000793          	li	a5,320
    11d0:	00448493          	addi	s1,s1,4 # 20000004 <colors>
    11d4:	c43e                	sw	a5,8(sp)
    11d6:	3fbd                	jal	1154 <rand16>
    11d8:	45cd                	li	a1,19
    11da:	f27fe0ef          	jal	ra,100 <__umodsi3>
    11de:	0542                	slli	a0,a0,0x10
    11e0:	8141                	srli	a0,a0,0x10
    11e2:	0506                	slli	a0,a0,0x1
    11e4:	9526                	add	a0,a0,s1
    11e6:	2102                	lhu	s0,0(a0)
    11e8:	37b5                	jal	1154 <rand16>
    11ea:	c22a                	sw	a0,4(sp)
    11ec:	37a5                	jal	1154 <rand16>
    11ee:	0f000593          	li	a1,240
    11f2:	f0ffe0ef          	jal	ra,100 <__umodsi3>
    11f6:	4612                	lw	a2,4(sp)
    11f8:	01051713          	slli	a4,a0,0x10
    11fc:	8341                	srli	a4,a4,0x10
    11fe:	14000593          	li	a1,320
    1202:	8532                	mv	a0,a2
    1204:	c03a                	sw	a4,0(sp)
    1206:	efbfe0ef          	jal	ra,100 <__umodsi3>
    120a:	4702                	lw	a4,0(sp)
    120c:	0542                	slli	a0,a0,0x10
    120e:	8622                	mv	a2,s0
    1210:	85ba                	mv	a1,a4
    1212:	8141                	srli	a0,a0,0x10
    1214:	d74ff0ef          	jal	ra,788 <tft_draw_pixel>
    1218:	3f35                	jal	1154 <rand16>
    121a:	c22a                	sw	a0,4(sp)
    121c:	3f25                	jal	1154 <rand16>
    121e:	0f000593          	li	a1,240
    1222:	edffe0ef          	jal	ra,100 <__umodsi3>
    1226:	4612                	lw	a2,4(sp)
    1228:	01051713          	slli	a4,a0,0x10
    122c:	8341                	srli	a4,a4,0x10
    122e:	14000593          	li	a1,320
    1232:	8532                	mv	a0,a2
    1234:	c03a                	sw	a4,0(sp)
    1236:	ecbfe0ef          	jal	ra,100 <__umodsi3>
    123a:	4702                	lw	a4,0(sp)
    123c:	0505                	addi	a0,a0,1
    123e:	0542                	slli	a0,a0,0x10
    1240:	85ba                	mv	a1,a4
    1242:	8622                	mv	a2,s0
    1244:	8141                	srli	a0,a0,0x10
    1246:	d42ff0ef          	jal	ra,788 <tft_draw_pixel>
    124a:	3729                	jal	1154 <rand16>
    124c:	c22a                	sw	a0,4(sp)
    124e:	3719                	jal	1154 <rand16>
    1250:	0f000593          	li	a1,240
    1254:	eadfe0ef          	jal	ra,100 <__umodsi3>
    1258:	4612                	lw	a2,4(sp)
    125a:	0505                	addi	a0,a0,1
    125c:	01051713          	slli	a4,a0,0x10
    1260:	8341                	srli	a4,a4,0x10
    1262:	14000593          	li	a1,320
    1266:	8532                	mv	a0,a2
    1268:	c03a                	sw	a4,0(sp)
    126a:	e97fe0ef          	jal	ra,100 <__umodsi3>
    126e:	4702                	lw	a4,0(sp)
    1270:	0542                	slli	a0,a0,0x10
    1272:	8622                	mv	a2,s0
    1274:	85ba                	mv	a1,a4
    1276:	8141                	srli	a0,a0,0x10
    1278:	d10ff0ef          	jal	ra,788 <tft_draw_pixel>
    127c:	3de1                	jal	1154 <rand16>
    127e:	c22a                	sw	a0,4(sp)
    1280:	3dd1                	jal	1154 <rand16>
    1282:	0f000593          	li	a1,240
    1286:	e7bfe0ef          	jal	ra,100 <__umodsi3>
    128a:	4612                	lw	a2,4(sp)
    128c:	0505                	addi	a0,a0,1
    128e:	01051713          	slli	a4,a0,0x10
    1292:	8341                	srli	a4,a4,0x10
    1294:	14000593          	li	a1,320
    1298:	8532                	mv	a0,a2
    129a:	c03a                	sw	a4,0(sp)
    129c:	e65fe0ef          	jal	ra,100 <__umodsi3>
    12a0:	4702                	lw	a4,0(sp)
    12a2:	0505                	addi	a0,a0,1
    12a4:	0542                	slli	a0,a0,0x10
    12a6:	8622                	mv	a2,s0
    12a8:	85ba                	mv	a1,a4
    12aa:	8141                	srli	a0,a0,0x10
    12ac:	cdcff0ef          	jal	ra,788 <tft_draw_pixel>
    12b0:	47a2                	lw	a5,8(sp)
    12b2:	200006b7          	lui	a3,0x20000
    12b6:	17fd                	addi	a5,a5,-1
    12b8:	07c2                	slli	a5,a5,0x10
    12ba:	83c1                	srli	a5,a5,0x10
    12bc:	f0079ce3          	bnez	a5,11d4 <random_dot+0x40>
    12c0:	bdf5                	j	11bc <random_dot+0x28>

000012c2 <scan_hline>:
    12c2:	ddffe2ef          	jal	t0,a0 <__riscv_save_0>
    12c6:	1171                	addi	sp,sp,-4
    12c8:	4701                	li	a4,0
    12ca:	0f000693          	li	a3,240
    12ce:	14000613          	li	a2,320
    12d2:	4581                	li	a1,0
    12d4:	4501                	li	a0,0
    12d6:	ce6ff0ef          	jal	ra,7bc <tft_fill_rect>
    12da:	65b1                	lui	a1,0xc
    12dc:	b8058593          	addi	a1,a1,-1152 # bb80 <_data_lma+0x87bc>
    12e0:	3e800513          	li	a0,1000
    12e4:	c49ff0ef          	jal	ra,f2c <TIM2_INT_Init>
    12e8:	200007b7          	lui	a5,0x20000
    12ec:	0ac7c703          	lbu	a4,172(a5) # 200000ac <timer2_flag>
    12f0:	e701                	bnez	a4,12f8 <scan_hline+0x36>
    12f2:	0111                	addi	sp,sp,4
    12f4:	db7fe06f          	j	aa <__riscv_restore_0>
    12f8:	200004b7          	lui	s1,0x20000
    12fc:	4401                	li	s0,0
    12fe:	00448493          	addi	s1,s1,4 # 20000004 <colors>
    1302:	01041693          	slli	a3,s0,0x10
    1306:	86c1                	srai	a3,a3,0x10
    1308:	c036                	sw	a3,0(sp)
    130a:	35a9                	jal	1154 <rand16>
    130c:	45cd                	li	a1,19
    130e:	df3fe0ef          	jal	ra,100 <__umodsi3>
    1312:	0542                	slli	a0,a0,0x10
    1314:	8141                	srli	a0,a0,0x10
    1316:	0506                	slli	a0,a0,0x1
    1318:	9526                	add	a0,a0,s1
    131a:	4682                	lw	a3,0(sp)
    131c:	211a                	lhu	a4,0(a0)
    131e:	14000613          	li	a2,320
    1322:	85b6                	mv	a1,a3
    1324:	4501                	li	a0,0
    1326:	0405                	addi	s0,s0,1
    1328:	da4ff0ef          	jal	ra,8cc <tft_draw_line>
    132c:	0442                	slli	s0,s0,0x10
    132e:	8041                	srli	s0,s0,0x10
    1330:	14000713          	li	a4,320
    1334:	200007b7          	lui	a5,0x20000
    1338:	fce415e3          	bne	s0,a4,1302 <scan_hline+0x40>
    133c:	bf45                	j	12ec <scan_hline+0x2a>

0000133e <scan_vline>:
    133e:	d63fe2ef          	jal	t0,a0 <__riscv_save_0>
    1342:	1171                	addi	sp,sp,-4
    1344:	4701                	li	a4,0
    1346:	0f000693          	li	a3,240
    134a:	14000613          	li	a2,320
    134e:	4581                	li	a1,0
    1350:	4501                	li	a0,0
    1352:	c6aff0ef          	jal	ra,7bc <tft_fill_rect>
    1356:	65b1                	lui	a1,0xc
    1358:	b8058593          	addi	a1,a1,-1152 # bb80 <_data_lma+0x87bc>
    135c:	3e800513          	li	a0,1000
    1360:	bcdff0ef          	jal	ra,f2c <TIM2_INT_Init>
    1364:	200007b7          	lui	a5,0x20000
    1368:	0ac7c703          	lbu	a4,172(a5) # 200000ac <timer2_flag>
    136c:	e701                	bnez	a4,1374 <scan_vline+0x36>
    136e:	0111                	addi	sp,sp,4
    1370:	d3bfe06f          	j	aa <__riscv_restore_0>
    1374:	200004b7          	lui	s1,0x20000
    1378:	4401                	li	s0,0
    137a:	00448493          	addi	s1,s1,4 # 20000004 <colors>
    137e:	01041613          	slli	a2,s0,0x10
    1382:	8641                	srai	a2,a2,0x10
    1384:	c032                	sw	a2,0(sp)
    1386:	33f9                	jal	1154 <rand16>
    1388:	45cd                	li	a1,19
    138a:	d77fe0ef          	jal	ra,100 <__umodsi3>
    138e:	0542                	slli	a0,a0,0x10
    1390:	8141                	srli	a0,a0,0x10
    1392:	0506                	slli	a0,a0,0x1
    1394:	9526                	add	a0,a0,s1
    1396:	4602                	lw	a2,0(sp)
    1398:	211a                	lhu	a4,0(a0)
    139a:	0f000693          	li	a3,240
    139e:	4581                	li	a1,0
    13a0:	8532                	mv	a0,a2
    13a2:	0405                	addi	s0,s0,1
    13a4:	d28ff0ef          	jal	ra,8cc <tft_draw_line>
    13a8:	0442                	slli	s0,s0,0x10
    13aa:	8041                	srli	s0,s0,0x10
    13ac:	14000713          	li	a4,320
    13b0:	200007b7          	lui	a5,0x20000
    13b4:	fce415e3          	bne	s0,a4,137e <scan_vline+0x40>
    13b8:	bf45                	j	1368 <scan_vline+0x2a>

000013ba <random_line>:
    13ba:	ce7fe2ef          	jal	t0,a0 <__riscv_save_0>
    13be:	1131                	addi	sp,sp,-20
    13c0:	4701                	li	a4,0
    13c2:	0f000693          	li	a3,240
    13c6:	14000613          	li	a2,320
    13ca:	4581                	li	a1,0
    13cc:	4501                	li	a0,0
    13ce:	beeff0ef          	jal	ra,7bc <tft_fill_rect>
    13d2:	65b1                	lui	a1,0xc
    13d4:	b8058593          	addi	a1,a1,-1152 # bb80 <_data_lma+0x87bc>
    13d8:	3e800513          	li	a0,1000
    13dc:	b51ff0ef          	jal	ra,f2c <TIM2_INT_Init>
    13e0:	20000437          	lui	s0,0x20000
    13e4:	0ac44783          	lbu	a5,172(s0) # 200000ac <timer2_flag>
    13e8:	e781                	bnez	a5,13f0 <random_line+0x36>
    13ea:	0151                	addi	sp,sp,20
    13ec:	cbffe06f          	j	aa <__riscv_restore_0>
    13f0:	3395                	jal	1154 <rand16>
    13f2:	84aa                	mv	s1,a0
    13f4:	3385                	jal	1154 <rand16>
    13f6:	c82a                	sw	a0,16(sp)
    13f8:	3bb1                	jal	1154 <rand16>
    13fa:	c22a                	sw	a0,4(sp)
    13fc:	3ba1                	jal	1154 <rand16>
    13fe:	c02a                	sw	a0,0(sp)
    1400:	3b91                	jal	1154 <rand16>
    1402:	45cd                	li	a1,19
    1404:	cfdfe0ef          	jal	ra,100 <__umodsi3>
    1408:	0542                	slli	a0,a0,0x10
    140a:	8141                	srli	a0,a0,0x10
    140c:	00151793          	slli	a5,a0,0x1
    1410:	20000537          	lui	a0,0x20000
    1414:	00450513          	addi	a0,a0,4 # 20000004 <colors>
    1418:	953e                	add	a0,a0,a5
    141a:	4682                	lw	a3,0(sp)
    141c:	211a                	lhu	a4,0(a0)
    141e:	0f000593          	li	a1,240
    1422:	8536                	mv	a0,a3
    1424:	c63a                	sw	a4,12(sp)
    1426:	cdbfe0ef          	jal	ra,100 <__umodsi3>
    142a:	4612                	lw	a2,4(sp)
    142c:	01051693          	slli	a3,a0,0x10
    1430:	86c1                	srai	a3,a3,0x10
    1432:	14000593          	li	a1,320
    1436:	8532                	mv	a0,a2
    1438:	c436                	sw	a3,8(sp)
    143a:	cc7fe0ef          	jal	ra,100 <__umodsi3>
    143e:	4342                	lw	t1,16(sp)
    1440:	01051613          	slli	a2,a0,0x10
    1444:	8641                	srai	a2,a2,0x10
    1446:	851a                	mv	a0,t1
    1448:	0f000593          	li	a1,240
    144c:	c232                	sw	a2,4(sp)
    144e:	cb3fe0ef          	jal	ra,100 <__umodsi3>
    1452:	01051793          	slli	a5,a0,0x10
    1456:	87c1                	srai	a5,a5,0x10
    1458:	14000593          	li	a1,320
    145c:	8526                	mv	a0,s1
    145e:	c03e                	sw	a5,0(sp)
    1460:	ca1fe0ef          	jal	ra,100 <__umodsi3>
    1464:	4782                	lw	a5,0(sp)
    1466:	4732                	lw	a4,12(sp)
    1468:	46a2                	lw	a3,8(sp)
    146a:	4612                	lw	a2,4(sp)
    146c:	0542                	slli	a0,a0,0x10
    146e:	85be                	mv	a1,a5
    1470:	8541                	srai	a0,a0,0x10
    1472:	c5aff0ef          	jal	ra,8cc <tft_draw_line>
    1476:	b7bd                	j	13e4 <random_line+0x2a>

00001478 <center_rect>:
    1478:	c29fe2ef          	jal	t0,a0 <__riscv_save_0>
    147c:	1161                	addi	sp,sp,-8
    147e:	4701                	li	a4,0
    1480:	0f000693          	li	a3,240
    1484:	14000613          	li	a2,320
    1488:	4581                	li	a1,0
    148a:	4501                	li	a0,0
    148c:	b30ff0ef          	jal	ra,7bc <tft_fill_rect>
    1490:	65b1                	lui	a1,0xc
    1492:	b8058593          	addi	a1,a1,-1152 # bb80 <_data_lma+0x87bc>
    1496:	3e800513          	li	a0,1000
    149a:	a93ff0ef          	jal	ra,f2c <TIM2_INT_Init>
    149e:	200002b7          	lui	t0,0x20000
    14a2:	0ac2c783          	lbu	a5,172(t0) # 200000ac <timer2_flag>
    14a6:	e781                	bnez	a5,14ae <center_rect+0x36>
    14a8:	0121                	addi	sp,sp,8
    14aa:	c01fe06f          	j	aa <__riscv_restore_0>
    14ae:	200004b7          	lui	s1,0x20000
    14b2:	4781                	li	a5,0
    14b4:	00448493          	addi	s1,s1,4 # 20000004 <colors>
    14b8:	01079313          	slli	t1,a5,0x10
    14bc:	01035313          	srli	t1,t1,0x10
    14c0:	c23e                	sw	a5,4(sp)
    14c2:	40600433          	neg	s0,t1
    14c6:	c01a                	sw	t1,0(sp)
    14c8:	c8dff0ef          	jal	ra,1154 <rand16>
    14cc:	45cd                	li	a1,19
    14ce:	c33fe0ef          	jal	ra,100 <__umodsi3>
    14d2:	0542                	slli	a0,a0,0x10
    14d4:	0406                	slli	s0,s0,0x1
    14d6:	8141                	srli	a0,a0,0x10
    14d8:	0442                	slli	s0,s0,0x10
    14da:	0506                	slli	a0,a0,0x1
    14dc:	4302                	lw	t1,0(sp)
    14de:	8041                	srli	s0,s0,0x10
    14e0:	9526                	add	a0,a0,s1
    14e2:	211a                	lhu	a4,0(a0)
    14e4:	0f040693          	addi	a3,s0,240
    14e8:	14040613          	addi	a2,s0,320
    14ec:	06c2                	slli	a3,a3,0x10
    14ee:	0642                	slli	a2,a2,0x10
    14f0:	82c1                	srli	a3,a3,0x10
    14f2:	8241                	srli	a2,a2,0x10
    14f4:	859a                	mv	a1,t1
    14f6:	851a                	mv	a0,t1
    14f8:	b5cff0ef          	jal	ra,854 <tft_draw_rect>
    14fc:	4792                	lw	a5,4(sp)
    14fe:	07800713          	li	a4,120
    1502:	200002b7          	lui	t0,0x20000
    1506:	0785                	addi	a5,a5,1
    1508:	fae798e3          	bne	a5,a4,14b8 <center_rect+0x40>
    150c:	bf59                	j	14a2 <center_rect+0x2a>

0000150e <random_rect>:
    150e:	b93fe2ef          	jal	t0,a0 <__riscv_save_0>
    1512:	1151                	addi	sp,sp,-12
    1514:	4701                	li	a4,0
    1516:	0f000693          	li	a3,240
    151a:	14000613          	li	a2,320
    151e:	4581                	li	a1,0
    1520:	4501                	li	a0,0
    1522:	a9aff0ef          	jal	ra,7bc <tft_fill_rect>
    1526:	65b1                	lui	a1,0xc
    1528:	b8058593          	addi	a1,a1,-1152 # bb80 <_data_lma+0x87bc>
    152c:	3e800513          	li	a0,1000
    1530:	9fdff0ef          	jal	ra,f2c <TIM2_INT_Init>
    1534:	200007b7          	lui	a5,0x20000
    1538:	0ac7c703          	lbu	a4,172(a5) # 200000ac <timer2_flag>
    153c:	e701                	bnez	a4,1544 <random_rect+0x36>
    153e:	0131                	addi	sp,sp,12
    1540:	b6bfe06f          	j	aa <__riscv_restore_0>
    1544:	200004b7          	lui	s1,0x20000
    1548:	07800413          	li	s0,120
    154c:	00448493          	addi	s1,s1,4 # 20000004 <colors>
    1550:	c05ff0ef          	jal	ra,1154 <rand16>
    1554:	c42a                	sw	a0,8(sp)
    1556:	bffff0ef          	jal	ra,1154 <rand16>
    155a:	c02a                	sw	a0,0(sp)
    155c:	bf9ff0ef          	jal	ra,1154 <rand16>
    1560:	45cd                	li	a1,19
    1562:	b9ffe0ef          	jal	ra,100 <__umodsi3>
    1566:	0542                	slli	a0,a0,0x10
    1568:	8141                	srli	a0,a0,0x10
    156a:	0506                	slli	a0,a0,0x1
    156c:	4602                	lw	a2,0(sp)
    156e:	9526                	add	a0,a0,s1
    1570:	211a                	lhu	a4,0(a0)
    1572:	0f000593          	li	a1,240
    1576:	8532                	mv	a0,a2
    1578:	c23a                	sw	a4,4(sp)
    157a:	b87fe0ef          	jal	ra,100 <__umodsi3>
    157e:	46a2                	lw	a3,8(sp)
    1580:	01051313          	slli	t1,a0,0x10
    1584:	01035313          	srli	t1,t1,0x10
    1588:	14000593          	li	a1,320
    158c:	8536                	mv	a0,a3
    158e:	c01a                	sw	t1,0(sp)
    1590:	b71fe0ef          	jal	ra,100 <__umodsi3>
    1594:	4302                	lw	t1,0(sp)
    1596:	4712                	lw	a4,4(sp)
    1598:	0542                	slli	a0,a0,0x10
    159a:	46d1                	li	a3,20
    159c:	4651                	li	a2,20
    159e:	859a                	mv	a1,t1
    15a0:	8141                	srli	a0,a0,0x10
    15a2:	147d                	addi	s0,s0,-1
    15a4:	ab0ff0ef          	jal	ra,854 <tft_draw_rect>
    15a8:	0ff47413          	andi	s0,s0,255
    15ac:	200007b7          	lui	a5,0x20000
    15b0:	f045                	bnez	s0,1550 <random_rect+0x42>
    15b2:	b759                	j	1538 <random_rect+0x2a>

000015b4 <fill_rect>:
    15b4:	aedfe2ef          	jal	t0,a0 <__riscv_save_0>
    15b8:	1151                	addi	sp,sp,-12
    15ba:	4701                	li	a4,0
    15bc:	0f000693          	li	a3,240
    15c0:	14000613          	li	a2,320
    15c4:	4581                	li	a1,0
    15c6:	4501                	li	a0,0
    15c8:	9f4ff0ef          	jal	ra,7bc <tft_fill_rect>
    15cc:	65b1                	lui	a1,0xc
    15ce:	b8058593          	addi	a1,a1,-1152 # bb80 <_data_lma+0x87bc>
    15d2:	3e800513          	li	a0,1000
    15d6:	957ff0ef          	jal	ra,f2c <TIM2_INT_Init>
    15da:	200007b7          	lui	a5,0x20000
    15de:	0ac7c703          	lbu	a4,172(a5) # 200000ac <timer2_flag>
    15e2:	e701                	bnez	a4,15ea <fill_rect+0x36>
    15e4:	0131                	addi	sp,sp,12
    15e6:	ac5fe06f          	j	aa <__riscv_restore_0>
    15ea:	200004b7          	lui	s1,0x20000
    15ee:	07800413          	li	s0,120
    15f2:	00448493          	addi	s1,s1,4 # 20000004 <colors>
    15f6:	b5fff0ef          	jal	ra,1154 <rand16>
    15fa:	c42a                	sw	a0,8(sp)
    15fc:	b59ff0ef          	jal	ra,1154 <rand16>
    1600:	c02a                	sw	a0,0(sp)
    1602:	b53ff0ef          	jal	ra,1154 <rand16>
    1606:	45cd                	li	a1,19
    1608:	af9fe0ef          	jal	ra,100 <__umodsi3>
    160c:	0542                	slli	a0,a0,0x10
    160e:	8141                	srli	a0,a0,0x10
    1610:	0506                	slli	a0,a0,0x1
    1612:	4602                	lw	a2,0(sp)
    1614:	9526                	add	a0,a0,s1
    1616:	211a                	lhu	a4,0(a0)
    1618:	0f000593          	li	a1,240
    161c:	8532                	mv	a0,a2
    161e:	c23a                	sw	a4,4(sp)
    1620:	ae1fe0ef          	jal	ra,100 <__umodsi3>
    1624:	46a2                	lw	a3,8(sp)
    1626:	01051313          	slli	t1,a0,0x10
    162a:	01035313          	srli	t1,t1,0x10
    162e:	14000593          	li	a1,320
    1632:	8536                	mv	a0,a3
    1634:	c01a                	sw	t1,0(sp)
    1636:	acbfe0ef          	jal	ra,100 <__umodsi3>
    163a:	4302                	lw	t1,0(sp)
    163c:	4712                	lw	a4,4(sp)
    163e:	0542                	slli	a0,a0,0x10
    1640:	46d1                	li	a3,20
    1642:	4651                	li	a2,20
    1644:	859a                	mv	a1,t1
    1646:	8141                	srli	a0,a0,0x10
    1648:	147d                	addi	s0,s0,-1
    164a:	972ff0ef          	jal	ra,7bc <tft_fill_rect>
    164e:	0ff47413          	andi	s0,s0,255
    1652:	200007b7          	lui	a5,0x20000
    1656:	f045                	bnez	s0,15f6 <fill_rect+0x42>
    1658:	b759                	j	15de <fill_rect+0x2a>

0000165a <move_rect>:
    165a:	a47fe2ef          	jal	t0,a0 <__riscv_save_0>
    165e:	1151                	addi	sp,sp,-12
    1660:	4701                	li	a4,0
    1662:	0f000693          	li	a3,240
    1666:	14000613          	li	a2,320
    166a:	4581                	li	a1,0
    166c:	4501                	li	a0,0
    166e:	94eff0ef          	jal	ra,7bc <tft_fill_rect>
    1672:	3e800793          	li	a5,1000
    1676:	92f1a823          	sw	a5,-1744(gp) # 20000218 <frame>
    167a:	4389                	li	t2,2
    167c:	4289                	li	t0,2
    167e:	4781                	li	a5,0
    1680:	4401                	li	s0,0
    1682:	93018313          	addi	t1,gp,-1744 # 20000218 <frame>
    1686:	00032703          	lw	a4,0(t1)
    168a:	fff70693          	addi	a3,a4,-1 # dffff <_data_lma+0xdcc3b>
    168e:	00d32023          	sw	a3,0(t1)
    1692:	e701                	bnez	a4,169a <move_rect+0x40>
    1694:	0131                	addi	sp,sp,12
    1696:	a15fe06f          	j	aa <__riscv_restore_0>
    169a:	c41e                	sw	t2,8(sp)
    169c:	c216                	sw	t0,4(sp)
    169e:	c03e                	sw	a5,0(sp)
    16a0:	ab5ff0ef          	jal	ra,1154 <rand16>
    16a4:	200007b7          	lui	a5,0x20000
    16a8:	45cd                	li	a1,19
    16aa:	00478493          	addi	s1,a5,4 # 20000004 <colors>
    16ae:	a53fe0ef          	jal	ra,100 <__umodsi3>
    16b2:	0542                	slli	a0,a0,0x10
    16b4:	8141                	srli	a0,a0,0x10
    16b6:	0506                	slli	a0,a0,0x1
    16b8:	4782                	lw	a5,0(sp)
    16ba:	9526                	add	a0,a0,s1
    16bc:	211a                	lhu	a4,0(a0)
    16be:	85be                	mv	a1,a5
    16c0:	46d1                	li	a3,20
    16c2:	02800613          	li	a2,40
    16c6:	8522                	mv	a0,s0
    16c8:	8f4ff0ef          	jal	ra,7bc <tft_fill_rect>
    16cc:	a89ff0ef          	jal	ra,1154 <rand16>
    16d0:	45cd                	li	a1,19
    16d2:	a2ffe0ef          	jal	ra,100 <__umodsi3>
    16d6:	0542                	slli	a0,a0,0x10
    16d8:	8141                	srli	a0,a0,0x10
    16da:	0506                	slli	a0,a0,0x1
    16dc:	94aa                	add	s1,s1,a0
    16de:	208a                	lhu	a0,0(s1)
    16e0:	f81fe0ef          	jal	ra,660 <tft_set_color>
    16e4:	4292                	lw	t0,4(sp)
    16e6:	11700713          	li	a4,279
    16ea:	9416                	add	s0,s0,t0
    16ec:	0442                	slli	s0,s0,0x10
    16ee:	8041                	srli	s0,s0,0x10
    16f0:	4782                	lw	a5,0(sp)
    16f2:	43a2                	lw	t2,8(sp)
    16f4:	93018313          	addi	t1,gp,-1744 # 20000218 <frame>
    16f8:	00877763          	bgeu	a4,s0,1706 <move_rect+0xac>
    16fc:	405002b3          	neg	t0,t0
    1700:	02c2                	slli	t0,t0,0x10
    1702:	0102d293          	srli	t0,t0,0x10
    1706:	979e                	add	a5,a5,t2
    1708:	07c2                	slli	a5,a5,0x10
    170a:	83c1                	srli	a5,a5,0x10
    170c:	0db00713          	li	a4,219
    1710:	f6f77be3          	bgeu	a4,a5,1686 <move_rect+0x2c>
    1714:	407003b3          	neg	t2,t2
    1718:	03c2                	slli	t2,t2,0x10
    171a:	0103d393          	srli	t2,t2,0x10
    171e:	b7a5                	j	1686 <move_rect+0x2c>

00001720 <random_circ>:
    1720:	981fe2ef          	jal	t0,a0 <__riscv_save_0>
    1724:	4701                	li	a4,0
    1726:	1151                	addi	sp,sp,-12
    1728:	0f000693          	li	a3,240
    172c:	14000613          	li	a2,320
    1730:	4581                	li	a1,0
    1732:	4501                	li	a0,0
    1734:	888ff0ef          	jal	ra,7bc <tft_fill_rect>
    1738:	65b1                	lui	a1,0xc
    173a:	b8058593          	addi	a1,a1,-1152 # bb80 <_data_lma+0x87bc>
    173e:	3e800513          	li	a0,1000
    1742:	feaff0ef          	jal	ra,f2c <TIM2_INT_Init>
    1746:	20000737          	lui	a4,0x20000
    174a:	0ac74783          	lbu	a5,172(a4) # 200000ac <timer2_flag>
    174e:	e781                	bnez	a5,1756 <random_circ+0x36>
    1750:	0131                	addi	sp,sp,12
    1752:	959fe06f          	j	aa <__riscv_restore_0>
    1756:	200004b7          	lui	s1,0x20000
    175a:	05000413          	li	s0,80
    175e:	00448493          	addi	s1,s1,4 # 20000004 <colors>
    1762:	9f3ff0ef          	jal	ra,1154 <rand16>
    1766:	c42a                	sw	a0,8(sp)
    1768:	9edff0ef          	jal	ra,1154 <rand16>
    176c:	c02a                	sw	a0,0(sp)
    176e:	9e7ff0ef          	jal	ra,1154 <rand16>
    1772:	45cd                	li	a1,19
    1774:	98dfe0ef          	jal	ra,100 <__umodsi3>
    1778:	0542                	slli	a0,a0,0x10
    177a:	8141                	srli	a0,a0,0x10
    177c:	0506                	slli	a0,a0,0x1
    177e:	4782                	lw	a5,0(sp)
    1780:	9526                	add	a0,a0,s1
    1782:	2116                	lhu	a3,0(a0)
    1784:	0f000593          	li	a1,240
    1788:	853e                	mv	a0,a5
    178a:	c236                	sw	a3,4(sp)
    178c:	975fe0ef          	jal	ra,100 <__umodsi3>
    1790:	4622                	lw	a2,8(sp)
    1792:	01051793          	slli	a5,a0,0x10
    1796:	87c1                	srai	a5,a5,0x10
    1798:	14000593          	li	a1,320
    179c:	8532                	mv	a0,a2
    179e:	c03e                	sw	a5,0(sp)
    17a0:	961fe0ef          	jal	ra,100 <__umodsi3>
    17a4:	4782                	lw	a5,0(sp)
    17a6:	4692                	lw	a3,4(sp)
    17a8:	0542                	slli	a0,a0,0x10
    17aa:	4629                	li	a2,10
    17ac:	85be                	mv	a1,a5
    17ae:	8541                	srai	a0,a0,0x10
    17b0:	147d                	addi	s0,s0,-1
    17b2:	a6eff0ef          	jal	ra,a20 <tft_draw_circle>
    17b6:	0ff47413          	andi	s0,s0,255
    17ba:	20000737          	lui	a4,0x20000
    17be:	f055                	bnez	s0,1762 <random_circ+0x42>
    17c0:	b769                	j	174a <random_circ+0x2a>

000017c2 <fill_circ>:
    17c2:	8dffe2ef          	jal	t0,a0 <__riscv_save_0>
    17c6:	4701                	li	a4,0
    17c8:	1151                	addi	sp,sp,-12
    17ca:	0f000693          	li	a3,240
    17ce:	14000613          	li	a2,320
    17d2:	4581                	li	a1,0
    17d4:	4501                	li	a0,0
    17d6:	fe7fe0ef          	jal	ra,7bc <tft_fill_rect>
    17da:	65b1                	lui	a1,0xc
    17dc:	b8058593          	addi	a1,a1,-1152 # bb80 <_data_lma+0x87bc>
    17e0:	3e800513          	li	a0,1000
    17e4:	f48ff0ef          	jal	ra,f2c <TIM2_INT_Init>
    17e8:	20000737          	lui	a4,0x20000
    17ec:	0ac74783          	lbu	a5,172(a4) # 200000ac <timer2_flag>
    17f0:	e781                	bnez	a5,17f8 <fill_circ+0x36>
    17f2:	0131                	addi	sp,sp,12
    17f4:	8b7fe06f          	j	aa <__riscv_restore_0>
    17f8:	200004b7          	lui	s1,0x20000
    17fc:	05000413          	li	s0,80
    1800:	00448493          	addi	s1,s1,4 # 20000004 <colors>
    1804:	951ff0ef          	jal	ra,1154 <rand16>
    1808:	c42a                	sw	a0,8(sp)
    180a:	94bff0ef          	jal	ra,1154 <rand16>
    180e:	c02a                	sw	a0,0(sp)
    1810:	945ff0ef          	jal	ra,1154 <rand16>
    1814:	45cd                	li	a1,19
    1816:	8ebfe0ef          	jal	ra,100 <__umodsi3>
    181a:	0542                	slli	a0,a0,0x10
    181c:	8141                	srli	a0,a0,0x10
    181e:	0506                	slli	a0,a0,0x1
    1820:	4782                	lw	a5,0(sp)
    1822:	9526                	add	a0,a0,s1
    1824:	2116                	lhu	a3,0(a0)
    1826:	0f000593          	li	a1,240
    182a:	853e                	mv	a0,a5
    182c:	c236                	sw	a3,4(sp)
    182e:	8d3fe0ef          	jal	ra,100 <__umodsi3>
    1832:	4622                	lw	a2,8(sp)
    1834:	01051793          	slli	a5,a0,0x10
    1838:	87c1                	srai	a5,a5,0x10
    183a:	14000593          	li	a1,320
    183e:	8532                	mv	a0,a2
    1840:	c03e                	sw	a5,0(sp)
    1842:	8bffe0ef          	jal	ra,100 <__umodsi3>
    1846:	4782                	lw	a5,0(sp)
    1848:	4692                	lw	a3,4(sp)
    184a:	0542                	slli	a0,a0,0x10
    184c:	4629                	li	a2,10
    184e:	85be                	mv	a1,a5
    1850:	8541                	srai	a0,a0,0x10
    1852:	147d                	addi	s0,s0,-1
    1854:	b5aff0ef          	jal	ra,bae <tft_fill_circle>
    1858:	0ff47413          	andi	s0,s0,255
    185c:	20000737          	lui	a4,0x20000
    1860:	f055                	bnez	s0,1804 <fill_circ+0x42>
    1862:	b769                	j	17ec <fill_circ+0x2a>

00001864 <demo_LCD>:
    1864:	83dfe2ef          	jal	t0,a0 <__riscv_save_0>
    1868:	92dff0ef          	jal	ra,1194 <random_dot>
    186c:	a57ff0ef          	jal	ra,12c2 <scan_hline>
    1870:	acfff0ef          	jal	ra,133e <scan_vline>
    1874:	b47ff0ef          	jal	ra,13ba <random_line>
    1878:	c01ff0ef          	jal	ra,1478 <center_rect>
    187c:	c93ff0ef          	jal	ra,150e <random_rect>
    1880:	d35ff0ef          	jal	ra,15b4 <fill_rect>
    1884:	dd7ff0ef          	jal	ra,165a <move_rect>
    1888:	3d61                	jal	1720 <random_circ>
    188a:	3f25                	jal	17c2 <fill_circ>
    188c:	81ffe06f          	j	aa <__riscv_restore_0>

00001890 <disp_ADC>:
    1890:	811fe2ef          	jal	t0,a0 <__riscv_save_0>
    1894:	90818613          	addi	a2,gp,-1784 # 200001f0 <adc_BUF>
    1898:	01460713          	addi	a4,a2,20
    189c:	90818793          	addi	a5,gp,-1784 # 200001f0 <adc_BUF>
    18a0:	4501                	li	a0,0
    18a2:	2396                	lhu	a3,0(a5)
    18a4:	0789                	addi	a5,a5,2
    18a6:	9536                	add	a0,a0,a3
    18a8:	0542                	slli	a0,a0,0x10
    18aa:	8141                	srli	a0,a0,0x10
    18ac:	fef71be3          	bne	a4,a5,18a2 <disp_ADC+0x12>
    18b0:	45a9                	li	a1,10
    18b2:	823fe0ef          	jal	ra,d4 <__udivsi3>
    18b6:	40020437          	lui	s0,0x40020
    18ba:	400125b7          	lui	a1,0x40012
    18be:	46a9                	li	a3,10
    18c0:	90818613          	addi	a2,gp,-1784 # 200001f0 <adc_BUF>
    18c4:	01051493          	slli	s1,a0,0x10
    18c8:	44c58593          	addi	a1,a1,1100 # 4001244c <__global_pointer$+0x20011b64>
    18cc:	00840513          	addi	a0,s0,8 # 40020008 <__global_pointer$+0x2001f720>
    18d0:	fe0ff0ef          	jal	ra,10b0 <DMA_Tx_Init>
    18d4:	00840513          	addi	a0,s0,8
    18d8:	4585                	li	a1,1
    18da:	7dc000ef          	jal	ra,20b6 <DMA_Cmd>
    18de:	80c1                	srli	s1,s1,0x10
    18e0:	6585                	lui	a1,0x1
    18e2:	9291a023          	sw	s1,-1760(gp) # 20000208 <adc_val>
    18e6:	cb258593          	addi	a1,a1,-846 # cb2 <TIM1_PWMOut_Init>
    18ea:	8526                	mv	a0,s1
    18ec:	fc8fe0ef          	jal	ra,b4 <__mulsi3>
    18f0:	3ff00593          	li	a1,1023
    18f4:	fd8fe0ef          	jal	ra,cc <__divsi3>
    18f8:	93418413          	addi	s0,gp,-1740 # 2000021c <mv_val>
    18fc:	0b000593          	li	a1,176
    1900:	c008                	sw	a0,0(s0)
    1902:	4501                	li	a0,0
    1904:	d53fe0ef          	jal	ra,656 <tft_set_cursor>
    1908:	7e000513          	li	a0,2016
    190c:	d55fe0ef          	jal	ra,660 <tft_set_color>
    1910:	00003537          	lui	a0,0x3
    1914:	29450513          	addi	a0,a0,660 # 3294 <gamma_p+0x10>
    1918:	e51fe0ef          	jal	ra,768 <tft_print>
    191c:	4010                	lw	a2,0(s0)
    191e:	000035b7          	lui	a1,0x3
    1922:	2a058593          	addi	a1,a1,672 # 32a0 <gamma_p+0x1c>
    1926:	92418513          	addi	a0,gp,-1756 # 2000020c <dec_str>
    192a:	56a010ef          	jal	ra,2e94 <sprintf>
    192e:	6541                	lui	a0,0x10
    1930:	1501                	addi	a0,a0,-32
    1932:	d2ffe0ef          	jal	ra,660 <tft_set_color>
    1936:	92418513          	addi	a0,gp,-1756 # 2000020c <dec_str>
    193a:	e2ffe0ef          	jal	ra,768 <tft_print>
    193e:	7e000513          	li	a0,2016
    1942:	d1ffe0ef          	jal	ra,660 <tft_set_color>
    1946:	00003537          	lui	a0,0x3
    194a:	2a450513          	addi	a0,a0,676 # 32a4 <gamma_p+0x20>
    194e:	e1bfe0ef          	jal	ra,768 <tft_print>
    1952:	f58fe06f          	j	aa <__riscv_restore_0>

00001956 <disp_TIM2>:
    1956:	f4afe2ef          	jal	t0,a0 <__riscv_save_0>
    195a:	0c000593          	li	a1,192
    195e:	4501                	li	a0,0
    1960:	cf7fe0ef          	jal	ra,656 <tft_set_cursor>
    1964:	7e000513          	li	a0,2016
    1968:	cf9fe0ef          	jal	ra,660 <tft_set_color>
    196c:	00003537          	lui	a0,0x3
    1970:	38c50513          	addi	a0,a0,908 # 338c <gamma_p+0x108>
    1974:	df5fe0ef          	jal	ra,768 <tft_print>
    1978:	400007b7          	lui	a5,0x40000
    197c:	33d2                	lhu	a2,36(a5)
    197e:	000035b7          	lui	a1,0x3
    1982:	0642                	slli	a2,a2,0x10
    1984:	8241                	srli	a2,a2,0x10
    1986:	2a058593          	addi	a1,a1,672 # 32a0 <gamma_p+0x1c>
    198a:	92418513          	addi	a0,gp,-1756 # 2000020c <dec_str>
    198e:	92c1ac23          	sw	a2,-1736(gp) # 20000220 <timer2_cnt>
    1992:	502010ef          	jal	ra,2e94 <sprintf>
    1996:	7ff00513          	li	a0,2047
    199a:	cc7fe0ef          	jal	ra,660 <tft_set_color>
    199e:	92418513          	addi	a0,gp,-1756 # 2000020c <dec_str>
    19a2:	dc7fe0ef          	jal	ra,768 <tft_print>
    19a6:	7e000513          	li	a0,2016
    19aa:	cb7fe0ef          	jal	ra,660 <tft_set_color>
    19ae:	00003537          	lui	a0,0x3
    19b2:	39850513          	addi	a0,a0,920 # 3398 <gamma_p+0x114>
    19b6:	db3fe0ef          	jal	ra,768 <tft_print>
    19ba:	ef0fe06f          	j	aa <__riscv_restore_0>

000019be <disp_MENU>:
    19be:	ee2fe2ef          	jal	t0,a0 <__riscv_save_0>
    19c2:	4701                	li	a4,0
    19c4:	0f000693          	li	a3,240
    19c8:	14000613          	li	a2,320
    19cc:	4581                	li	a1,0
    19ce:	4501                	li	a0,0
    19d0:	dedfe0ef          	jal	ra,7bc <tft_fill_rect>
    19d4:	4501                	li	a0,0
    19d6:	c95fe0ef          	jal	ra,66a <tft_set_background_color>
    19da:	7e000513          	li	a0,2016
    19de:	c83fe0ef          	jal	ra,660 <tft_set_color>
    19e2:	4581                	li	a1,0
    19e4:	4501                	li	a0,0
    19e6:	c71fe0ef          	jal	ra,656 <tft_set_cursor>
    19ea:	00003537          	lui	a0,0x3
    19ee:	2a850513          	addi	a0,a0,680 # 32a8 <gamma_p+0x24>
    19f2:	d77fe0ef          	jal	ra,768 <tft_print>
    19f6:	6541                	lui	a0,0x10
    19f8:	157d                	addi	a0,a0,-1
    19fa:	c67fe0ef          	jal	ra,660 <tft_set_color>
    19fe:	45c1                	li	a1,16
    1a00:	4501                	li	a0,0
    1a02:	c55fe0ef          	jal	ra,656 <tft_set_cursor>
    1a06:	00003537          	lui	a0,0x3
    1a0a:	2d050513          	addi	a0,a0,720 # 32d0 <gamma_p+0x4c>
    1a0e:	d5bfe0ef          	jal	ra,768 <tft_print>
    1a12:	02000593          	li	a1,32
    1a16:	4501                	li	a0,0
    1a18:	c3ffe0ef          	jal	ra,656 <tft_set_cursor>
    1a1c:	00003537          	lui	a0,0x3
    1a20:	2e050513          	addi	a0,a0,736 # 32e0 <gamma_p+0x5c>
    1a24:	d45fe0ef          	jal	ra,768 <tft_print>
    1a28:	03000593          	li	a1,48
    1a2c:	4501                	li	a0,0
    1a2e:	c29fe0ef          	jal	ra,656 <tft_set_cursor>
    1a32:	00003537          	lui	a0,0x3
    1a36:	2f050513          	addi	a0,a0,752 # 32f0 <gamma_p+0x6c>
    1a3a:	d2ffe0ef          	jal	ra,768 <tft_print>
    1a3e:	04000593          	li	a1,64
    1a42:	4501                	li	a0,0
    1a44:	c13fe0ef          	jal	ra,656 <tft_set_cursor>
    1a48:	00003537          	lui	a0,0x3
    1a4c:	30450513          	addi	a0,a0,772 # 3304 <gamma_p+0x80>
    1a50:	d19fe0ef          	jal	ra,768 <tft_print>
    1a54:	05000593          	li	a1,80
    1a58:	4501                	li	a0,0
    1a5a:	bfdfe0ef          	jal	ra,656 <tft_set_cursor>
    1a5e:	00003537          	lui	a0,0x3
    1a62:	31450513          	addi	a0,a0,788 # 3314 <gamma_p+0x90>
    1a66:	d03fe0ef          	jal	ra,768 <tft_print>
    1a6a:	06000593          	li	a1,96
    1a6e:	4501                	li	a0,0
    1a70:	be7fe0ef          	jal	ra,656 <tft_set_cursor>
    1a74:	00003537          	lui	a0,0x3
    1a78:	32850513          	addi	a0,a0,808 # 3328 <gamma_p+0xa4>
    1a7c:	cedfe0ef          	jal	ra,768 <tft_print>
    1a80:	07000593          	li	a1,112
    1a84:	4501                	li	a0,0
    1a86:	bd1fe0ef          	jal	ra,656 <tft_set_cursor>
    1a8a:	00003537          	lui	a0,0x3
    1a8e:	33c50513          	addi	a0,a0,828 # 333c <gamma_p+0xb8>
    1a92:	cd7fe0ef          	jal	ra,768 <tft_print>
    1a96:	08000593          	li	a1,128
    1a9a:	4501                	li	a0,0
    1a9c:	bbbfe0ef          	jal	ra,656 <tft_set_cursor>
    1aa0:	00003537          	lui	a0,0x3
    1aa4:	35050513          	addi	a0,a0,848 # 3350 <gamma_p+0xcc>
    1aa8:	cc1fe0ef          	jal	ra,768 <tft_print>
    1aac:	09000593          	li	a1,144
    1ab0:	4501                	li	a0,0
    1ab2:	ba5fe0ef          	jal	ra,656 <tft_set_cursor>
    1ab6:	00003537          	lui	a0,0x3
    1aba:	36450513          	addi	a0,a0,868 # 3364 <gamma_p+0xe0>
    1abe:	cabfe0ef          	jal	ra,768 <tft_print>
    1ac2:	0a000593          	li	a1,160
    1ac6:	4501                	li	a0,0
    1ac8:	b8ffe0ef          	jal	ra,656 <tft_set_cursor>
    1acc:	00003537          	lui	a0,0x3
    1ad0:	37850513          	addi	a0,a0,888 # 3378 <gamma_p+0xf4>
    1ad4:	c95fe0ef          	jal	ra,768 <tft_print>
    1ad8:	dd2fe06f          	j	aa <__riscv_restore_0>

00001adc <main>:
    1adc:	dc4fe2ef          	jal	t0,a0 <__riscv_save_0>
    1ae0:	4505                	li	a0,1
    1ae2:	706000ef          	jal	ra,21e8 <NVIC_PriorityGroupConfig>
    1ae6:	40011437          	lui	s0,0x40011
    1aea:	2c2d                	jal	1d24 <SystemCoreClockUpdate>
    1aec:	4b1000ef          	jal	ra,279c <Delay_Init>
    1af0:	2d99                	jal	2146 <GPIO_AFIODeInit>
    1af2:	80040513          	addi	a0,s0,-2048 # 40010800 <__global_pointer$+0x2000ff18>
    1af6:	2521                	jal	20fe <GPIO_DeInit>
    1af8:	40011537          	lui	a0,0x40011
    1afc:	2509                	jal	20fe <GPIO_DeInit>
    1afe:	40040513          	addi	a0,s0,1024
    1b02:	2bf5                	jal	20fe <GPIO_DeInit>
    1b04:	40014537          	lui	a0,0x40014
    1b08:	80050513          	addi	a0,a0,-2048 # 40013800 <__global_pointer$+0x20012f18>
    1b0c:	375000ef          	jal	ra,2680 <USART_DeInit>
    1b10:	6571                	lui	a0,0x1c
    1b12:	20050513          	addi	a0,a0,512 # 1c200 <_data_lma+0x18e3c>
    1b16:	4f5000ef          	jal	ra,280a <USART_Printf_Init>
    1b1a:	200007b7          	lui	a5,0x20000
    1b1e:	0c07a583          	lw	a1,192(a5) # 200000c0 <SystemCoreClock>
    1b22:	00003537          	lui	a0,0x3
    1b26:	39c50513          	addi	a0,a0,924 # 339c <gamma_p+0x118>
    1b2a:	346010ef          	jal	ra,2e70 <printf>
    1b2e:	2955                	jal	1fe2 <DBGMCU_GetCHIPID>
    1b30:	85aa                	mv	a1,a0
    1b32:	00003537          	lui	a0,0x3
    1b36:	3ac50513          	addi	a0,a0,940 # 33ac <gamma_p+0x128>
    1b3a:	336010ef          	jal	ra,2e70 <printf>
    1b3e:	40013437          	lui	s0,0x40013
    1b42:	c0040513          	addi	a0,s0,-1024 # 40012c00 <__global_pointer$+0x20012318>
    1b46:	0db000ef          	jal	ra,2420 <TIM_DeInit>
    1b4a:	4601                	li	a2,0
    1b4c:	45c1                	li	a1,16
    1b4e:	0c900513          	li	a0,201
    1b52:	960ff0ef          	jal	ra,cb2 <TIM1_PWMOut_Init>
    1b56:	400204b7          	lui	s1,0x40020
    1b5a:	05848513          	addi	a0,s1,88 # 40020058 <__global_pointer$+0x2001f770>
    1b5e:	2179                	jal	1fec <DMA_DeInit>
    1b60:	20000637          	lui	a2,0x20000
    1b64:	03e00693          	li	a3,62
    1b68:	c3440593          	addi	a1,s0,-972
    1b6c:	03060613          	addi	a2,a2,48 # 20000030 <sine_fdb>
    1b70:	05848513          	addi	a0,s1,88
    1b74:	ab4ff0ef          	jal	ra,e28 <TIM1_DMA_Init>
    1b78:	4605                	li	a2,1
    1b7a:	c0040513          	addi	a0,s0,-1024
    1b7e:	10000593          	li	a1,256
    1b82:	291000ef          	jal	ra,2612 <TIM_DMACmd>
    1b86:	4585                	li	a1,1
    1b88:	c0040513          	addi	a0,s0,-1024
    1b8c:	247000ef          	jal	ra,25d2 <TIM_Cmd>
    1b90:	40012537          	lui	a0,0x40012
    1b94:	40050513          	addi	a0,a0,1024 # 40012400 <__global_pointer$+0x20011b18>
    1b98:	246d                	jal	1e42 <ADC_DeInit>
    1b9a:	c52ff0ef          	jal	ra,fec <init_ADC>
    1b9e:	03048513          	addi	a0,s1,48
    1ba2:	21a9                	jal	1fec <DMA_DeInit>
    1ba4:	d6eff0ef          	jal	ra,1112 <init_DMA>
    1ba8:	40013537          	lui	a0,0x40013
    1bac:	7f4000ef          	jal	ra,23a0 <SPI_I2S_DeInit>
    1bb0:	8a5fe0ef          	jal	ra,454 <tft_init>
    1bb4:	06400513          	li	a0,100
    1bb8:	419000ef          	jal	ra,27d0 <Delay_Ms>
    1bbc:	20000437          	lui	s0,0x20000
    1bc0:	dffff0ef          	jal	ra,19be <disp_MENU>
    1bc4:	65b1                	lui	a1,0xc
    1bc6:	6505                	lui	a0,0x1
    1bc8:	b8058593          	addi	a1,a1,-1152 # bb80 <_data_lma+0x87bc>
    1bcc:	38850513          	addi	a0,a0,904 # 1388 <scan_vline+0x4a>
    1bd0:	b5cff0ef          	jal	ra,f2c <TIM2_INT_Init>
    1bd4:	0ac44783          	lbu	a5,172(s0) # 200000ac <timer2_flag>
    1bd8:	e781                	bnez	a5,1be0 <main+0x104>
    1bda:	c8bff0ef          	jal	ra,1864 <demo_LCD>
    1bde:	b7cd                	j	1bc0 <main+0xe4>
    1be0:	cb1ff0ef          	jal	ra,1890 <disp_ADC>
    1be4:	d73ff0ef          	jal	ra,1956 <disp_TIM2>
    1be8:	4565                	li	a0,25
    1bea:	3e7000ef          	jal	ra,27d0 <Delay_Ms>
    1bee:	b7dd                	j	1bd4 <main+0xf8>

00001bf0 <SystemInit>:
    1bf0:	cb0fe2ef          	jal	t0,a0 <__riscv_save_0>
    1bf4:	40021437          	lui	s0,0x40021
    1bf8:	401c                	lw	a5,0(s0)
    1bfa:	f8ff0737          	lui	a4,0xf8ff0
    1bfe:	1161                	addi	sp,sp,-8
    1c00:	0017e793          	ori	a5,a5,1
    1c04:	c01c                	sw	a5,0(s0)
    1c06:	405c                	lw	a5,4(s0)
    1c08:	4541                	li	a0,16
    1c0a:	8ff9                	and	a5,a5,a4
    1c0c:	c05c                	sw	a5,4(s0)
    1c0e:	401c                	lw	a5,0(s0)
    1c10:	fef70737          	lui	a4,0xfef70
    1c14:	177d                	addi	a4,a4,-1
    1c16:	8ff9                	and	a5,a5,a4
    1c18:	c01c                	sw	a5,0(s0)
    1c1a:	401c                	lw	a5,0(s0)
    1c1c:	fffc0737          	lui	a4,0xfffc0
    1c20:	177d                	addi	a4,a4,-1
    1c22:	8ff9                	and	a5,a5,a4
    1c24:	c01c                	sw	a5,0(s0)
    1c26:	405c                	lw	a5,4(s0)
    1c28:	7741                	lui	a4,0xffff0
    1c2a:	177d                	addi	a4,a4,-1
    1c2c:	8ff9                	and	a5,a5,a4
    1c2e:	c05c                	sw	a5,4(s0)
    1c30:	009f07b7          	lui	a5,0x9f0
    1c34:	c41c                	sw	a5,8(s0)
    1c36:	2531                	jal	2242 <RCC_AdjustHSICalibrationValue>
    1c38:	4c1c                	lw	a5,24(s0)
    1c3a:	00020637          	lui	a2,0x20
    1c3e:	0207e793          	ori	a5,a5,32
    1c42:	cc1c                	sw	a5,24(s0)
    1c44:	400117b7          	lui	a5,0x40011
    1c48:	4007a703          	lw	a4,1024(a5) # 40011400 <__global_pointer$+0x20010b18>
    1c4c:	40078693          	addi	a3,a5,1024
    1c50:	f0f77713          	andi	a4,a4,-241
    1c54:	40e7a023          	sw	a4,1024(a5)
    1c58:	4007a703          	lw	a4,1024(a5)
    1c5c:	08076713          	ori	a4,a4,128
    1c60:	40e7a023          	sw	a4,1024(a5)
    1c64:	4789                	li	a5,2
    1c66:	ca9c                	sw	a5,16(a3)
    1c68:	c002                	sw	zero,0(sp)
    1c6a:	c202                	sw	zero,4(sp)
    1c6c:	4c1c                	lw	a5,24(s0)
    1c6e:	40010737          	lui	a4,0x40010
    1c72:	66a1                	lui	a3,0x8
    1c74:	0017e793          	ori	a5,a5,1
    1c78:	cc1c                	sw	a5,24(s0)
    1c7a:	435c                	lw	a5,4(a4)
    1c7c:	8fd5                	or	a5,a5,a3
    1c7e:	c35c                	sw	a5,4(a4)
    1c80:	401c                	lw	a5,0(s0)
    1c82:	6741                	lui	a4,0x10
    1c84:	400216b7          	lui	a3,0x40021
    1c88:	8fd9                	or	a5,a5,a4
    1c8a:	c01c                	sw	a5,0(s0)
    1c8c:	6709                	lui	a4,0x2
    1c8e:	429c                	lw	a5,0(a3)
    1c90:	8ff1                	and	a5,a5,a2
    1c92:	c23e                	sw	a5,4(sp)
    1c94:	4782                	lw	a5,0(sp)
    1c96:	0785                	addi	a5,a5,1
    1c98:	c03e                	sw	a5,0(sp)
    1c9a:	4792                	lw	a5,4(sp)
    1c9c:	e781                	bnez	a5,1ca4 <SystemInit+0xb4>
    1c9e:	4782                	lw	a5,0(sp)
    1ca0:	fee797e3          	bne	a5,a4,1c8e <SystemInit+0x9e>
    1ca4:	400217b7          	lui	a5,0x40021
    1ca8:	439c                	lw	a5,0(a5)
    1caa:	00e79713          	slli	a4,a5,0xe
    1cae:	06075963          	bgez	a4,1d20 <SystemInit+0x130>
    1cb2:	4785                	li	a5,1
    1cb4:	c23e                	sw	a5,4(sp)
    1cb6:	4712                	lw	a4,4(sp)
    1cb8:	4785                	li	a5,1
    1cba:	06f71063          	bne	a4,a5,1d1a <SystemInit+0x12a>
    1cbe:	400227b7          	lui	a5,0x40022
    1cc2:	4398                	lw	a4,0(a5)
    1cc4:	76c1                	lui	a3,0xffff0
    1cc6:	16fd                	addi	a3,a3,-1
    1cc8:	9b71                	andi	a4,a4,-4
    1cca:	c398                	sw	a4,0(a5)
    1ccc:	4398                	lw	a4,0(a5)
    1cce:	00176713          	ori	a4,a4,1
    1cd2:	c398                	sw	a4,0(a5)
    1cd4:	400217b7          	lui	a5,0x40021
    1cd8:	43d8                	lw	a4,4(a5)
    1cda:	c3d8                	sw	a4,4(a5)
    1cdc:	43d8                	lw	a4,4(a5)
    1cde:	8f75                	and	a4,a4,a3
    1ce0:	c3d8                	sw	a4,4(a5)
    1ce2:	43d8                	lw	a4,4(a5)
    1ce4:	66c1                	lui	a3,0x10
    1ce6:	8f55                	or	a4,a4,a3
    1ce8:	c3d8                	sw	a4,4(a5)
    1cea:	4398                	lw	a4,0(a5)
    1cec:	010006b7          	lui	a3,0x1000
    1cf0:	8f55                	or	a4,a4,a3
    1cf2:	c398                	sw	a4,0(a5)
    1cf4:	4398                	lw	a4,0(a5)
    1cf6:	00671693          	slli	a3,a4,0x6
    1cfa:	fe06dde3          	bgez	a3,1cf4 <SystemInit+0x104>
    1cfe:	43d8                	lw	a4,4(a5)
    1d00:	400216b7          	lui	a3,0x40021
    1d04:	9b71                	andi	a4,a4,-4
    1d06:	c3d8                	sw	a4,4(a5)
    1d08:	43d8                	lw	a4,4(a5)
    1d0a:	00276713          	ori	a4,a4,2
    1d0e:	c3d8                	sw	a4,4(a5)
    1d10:	4721                	li	a4,8
    1d12:	42dc                	lw	a5,4(a3)
    1d14:	8bb1                	andi	a5,a5,12
    1d16:	fee79ee3          	bne	a5,a4,1d12 <SystemInit+0x122>
    1d1a:	0121                	addi	sp,sp,8
    1d1c:	b8efe06f          	j	aa <__riscv_restore_0>
    1d20:	c202                	sw	zero,4(sp)
    1d22:	bf51                	j	1cb6 <SystemInit+0xc6>

00001d24 <SystemCoreClockUpdate>:
    1d24:	b7cfe2ef          	jal	t0,a0 <__riscv_save_0>
    1d28:	40021737          	lui	a4,0x40021
    1d2c:	435c                	lw	a5,4(a4)
    1d2e:	20000437          	lui	s0,0x20000
    1d32:	4691                	li	a3,4
    1d34:	8bb1                	andi	a5,a5,12
    1d36:	0c040413          	addi	s0,s0,192 # 200000c0 <SystemCoreClock>
    1d3a:	00d78563          	beq	a5,a3,1d44 <SystemCoreClockUpdate+0x20>
    1d3e:	46a1                	li	a3,8
    1d40:	04d78263          	beq	a5,a3,1d84 <SystemCoreClockUpdate+0x60>
    1d44:	016e37b7          	lui	a5,0x16e3
    1d48:	60078793          	addi	a5,a5,1536 # 16e3600 <_data_lma+0x16e023c>
    1d4c:	c01c                	sw	a5,0(s0)
    1d4e:	400216b7          	lui	a3,0x40021
    1d52:	42dc                	lw	a5,4(a3)
    1d54:	4008                	lw	a0,0(s0)
    1d56:	8391                	srli	a5,a5,0x4
    1d58:	00f7f713          	andi	a4,a5,15
    1d5c:	200007b7          	lui	a5,0x20000
    1d60:	0b078793          	addi	a5,a5,176 # 200000b0 <AHBPrescTable>
    1d64:	97ba                	add	a5,a5,a4
    1d66:	238c                	lbu	a1,0(a5)
    1d68:	42dc                	lw	a5,4(a3)
    1d6a:	0ff5f593          	andi	a1,a1,255
    1d6e:	0807f793          	andi	a5,a5,128
    1d72:	00b55733          	srl	a4,a0,a1
    1d76:	e781                	bnez	a5,1d7e <SystemCoreClockUpdate+0x5a>
    1d78:	b5cfe0ef          	jal	ra,d4 <__udivsi3>
    1d7c:	872a                	mv	a4,a0
    1d7e:	c018                	sw	a4,0(s0)
    1d80:	b2afe06f          	j	aa <__riscv_restore_0>
    1d84:	435c                	lw	a5,4(a4)
    1d86:	02dc77b7          	lui	a5,0x2dc7
    1d8a:	c0078793          	addi	a5,a5,-1024 # 2dc6c00 <_data_lma+0x2dc383c>
    1d8e:	bf7d                	j	1d4c <SystemCoreClockUpdate+0x28>

00001d90 <ADC1_IRQHandler>:
    1d90:	a001                	j	1d90 <ADC1_IRQHandler>

00001d92 <handle_reset>:
    1d92:	1ffff197          	auipc	gp,0x1ffff
    1d96:	b5618193          	addi	gp,gp,-1194 # 200008e8 <__global_pointer$>
    1d9a:	f1818113          	addi	sp,gp,-232 # 20000800 <_eusrstack>
    1d9e:	0a000513          	li	a0,160
    1da2:	1fffe597          	auipc	a1,0x1fffe
    1da6:	25e58593          	addi	a1,a1,606 # 20000000 <_highcode_vma_end>
    1daa:	1fffe617          	auipc	a2,0x1fffe
    1dae:	25660613          	addi	a2,a2,598 # 20000000 <_highcode_vma_end>
    1db2:	00c5fa63          	bgeu	a1,a2,1dc6 <handle_reset+0x34>
    1db6:	00052283          	lw	t0,0(a0)
    1dba:	0055a023          	sw	t0,0(a1)
    1dbe:	0511                	addi	a0,a0,4
    1dc0:	0591                	addi	a1,a1,4
    1dc2:	fec5eae3          	bltu	a1,a2,1db6 <handle_reset+0x24>
    1dc6:	00001517          	auipc	a0,0x1
    1dca:	5fe50513          	addi	a0,a0,1534 # 33c4 <_data_lma>
    1dce:	1fffe597          	auipc	a1,0x1fffe
    1dd2:	23258593          	addi	a1,a1,562 # 20000000 <_highcode_vma_end>
    1dd6:	1fffe617          	auipc	a2,0x1fffe
    1dda:	31260613          	addi	a2,a2,786 # 200000e8 <_edata>
    1dde:	00c5fa63          	bgeu	a1,a2,1df2 <handle_reset+0x60>
    1de2:	00052283          	lw	t0,0(a0)
    1de6:	0055a023          	sw	t0,0(a1)
    1dea:	0511                	addi	a0,a0,4
    1dec:	0591                	addi	a1,a1,4
    1dee:	fec5eae3          	bltu	a1,a2,1de2 <handle_reset+0x50>
    1df2:	1fffe517          	auipc	a0,0x1fffe
    1df6:	2f650513          	addi	a0,a0,758 # 200000e8 <_edata>
    1dfa:	94418593          	addi	a1,gp,-1724 # 2000022c <_ebss>
    1dfe:	00b57763          	bgeu	a0,a1,1e0c <handle_reset+0x7a>
    1e02:	00052023          	sw	zero,0(a0)
    1e06:	0511                	addi	a0,a0,4
    1e08:	feb56de3          	bltu	a0,a1,1e02 <handle_reset+0x70>
    1e0c:	000022b7          	lui	t0,0x2
    1e10:	88028293          	addi	t0,t0,-1920 # 1880 <demo_LCD+0x1c>
    1e14:	30029073          	csrw	mstatus,t0
    1e18:	428d                	li	t0,3
    1e1a:	80429073          	csrw	0x804,t0
    1e1e:	ffffe297          	auipc	t0,0xffffe
    1e22:	1e228293          	addi	t0,t0,482 # 0 <_sinit>
    1e26:	0032e293          	ori	t0,t0,3
    1e2a:	30529073          	csrw	mtvec,t0
    1e2e:	dc3ff0ef          	jal	ra,1bf0 <SystemInit>
    1e32:	00000297          	auipc	t0,0x0
    1e36:	caa28293          	addi	t0,t0,-854 # 1adc <main>
    1e3a:	34129073          	csrw	mepc,t0
    1e3e:	30200073          	mret

00001e42 <ADC_DeInit>:
    1e42:	400127b7          	lui	a5,0x40012
    1e46:	40078793          	addi	a5,a5,1024 # 40012400 <__global_pointer$+0x20011b18>
    1e4a:	00f51e63          	bne	a0,a5,1e66 <ADC_DeInit+0x24>
    1e4e:	a52fe2ef          	jal	t0,a0 <__riscv_save_0>
    1e52:	4585                	li	a1,1
    1e54:	20000513          	li	a0,512
    1e58:	2331                	jal	2364 <RCC_APB2PeriphResetCmd>
    1e5a:	4581                	li	a1,0
    1e5c:	20000513          	li	a0,512
    1e60:	2311                	jal	2364 <RCC_APB2PeriphResetCmd>
    1e62:	a48fe06f          	j	aa <__riscv_restore_0>
    1e66:	8082                	ret

00001e68 <ADC_Init>:
    1e68:	415c                	lw	a5,4(a0)
    1e6a:	fff10737          	lui	a4,0xfff10
    1e6e:	eff70713          	addi	a4,a4,-257 # fff0feff <__global_pointer$+0xdff0f617>
    1e72:	8f7d                	and	a4,a4,a5
    1e74:	41dc                	lw	a5,4(a1)
    1e76:	4194                	lw	a3,0(a1)
    1e78:	07a2                	slli	a5,a5,0x8
    1e7a:	8fd5                	or	a5,a5,a3
    1e7c:	8fd9                	or	a5,a5,a4
    1e7e:	c15c                	sw	a5,4(a0)
    1e80:	451c                	lw	a5,8(a0)
    1e82:	fff1f737          	lui	a4,0xfff1f
    1e86:	7fd70713          	addi	a4,a4,2045 # fff1f7fd <__global_pointer$+0xdff1ef15>
    1e8a:	45d4                	lw	a3,12(a1)
    1e8c:	8f7d                	and	a4,a4,a5
    1e8e:	499c                	lw	a5,16(a1)
    1e90:	8fd5                	or	a5,a5,a3
    1e92:	4594                	lw	a3,8(a1)
    1e94:	0686                	slli	a3,a3,0x1
    1e96:	8fd5                	or	a5,a5,a3
    1e98:	8fd9                	or	a5,a5,a4
    1e9a:	c51c                	sw	a5,8(a0)
    1e9c:	555c                	lw	a5,44(a0)
    1e9e:	ff100737          	lui	a4,0xff100
    1ea2:	177d                	addi	a4,a4,-1
    1ea4:	8f7d                	and	a4,a4,a5
    1ea6:	29dc                	lbu	a5,20(a1)
    1ea8:	17fd                	addi	a5,a5,-1
    1eaa:	0ff7f793          	andi	a5,a5,255
    1eae:	07d2                	slli	a5,a5,0x14
    1eb0:	8fd9                	or	a5,a5,a4
    1eb2:	d55c                	sw	a5,44(a0)
    1eb4:	8082                	ret

00001eb6 <ADC_Cmd>:
    1eb6:	451c                	lw	a5,8(a0)
    1eb8:	c589                	beqz	a1,1ec2 <ADC_Cmd+0xc>
    1eba:	0017e793          	ori	a5,a5,1
    1ebe:	c51c                	sw	a5,8(a0)
    1ec0:	8082                	ret
    1ec2:	9bf9                	andi	a5,a5,-2
    1ec4:	bfed                	j	1ebe <ADC_Cmd+0x8>

00001ec6 <ADC_DMACmd>:
    1ec6:	451c                	lw	a5,8(a0)
    1ec8:	c589                	beqz	a1,1ed2 <ADC_DMACmd+0xc>
    1eca:	1007e793          	ori	a5,a5,256
    1ece:	c51c                	sw	a5,8(a0)
    1ed0:	8082                	ret
    1ed2:	eff7f793          	andi	a5,a5,-257
    1ed6:	bfe5                	j	1ece <ADC_DMACmd+0x8>

00001ed8 <ADC_ResetCalibration>:
    1ed8:	451c                	lw	a5,8(a0)
    1eda:	0087e793          	ori	a5,a5,8
    1ede:	c51c                	sw	a5,8(a0)
    1ee0:	8082                	ret

00001ee2 <ADC_GetResetCalibrationStatus>:
    1ee2:	4508                	lw	a0,8(a0)
    1ee4:	810d                	srli	a0,a0,0x3
    1ee6:	8905                	andi	a0,a0,1
    1ee8:	8082                	ret

00001eea <ADC_StartCalibration>:
    1eea:	451c                	lw	a5,8(a0)
    1eec:	0047e793          	ori	a5,a5,4
    1ef0:	c51c                	sw	a5,8(a0)
    1ef2:	8082                	ret

00001ef4 <ADC_GetCalibrationStatus>:
    1ef4:	4508                	lw	a0,8(a0)
    1ef6:	8109                	srli	a0,a0,0x2
    1ef8:	8905                	andi	a0,a0,1
    1efa:	8082                	ret

00001efc <ADC_SoftwareStartConvCmd>:
    1efc:	451c                	lw	a5,8(a0)
    1efe:	c591                	beqz	a1,1f0a <ADC_SoftwareStartConvCmd+0xe>
    1f00:	00500737          	lui	a4,0x500
    1f04:	8fd9                	or	a5,a5,a4
    1f06:	c51c                	sw	a5,8(a0)
    1f08:	8082                	ret
    1f0a:	ffb00737          	lui	a4,0xffb00
    1f0e:	177d                	addi	a4,a4,-1
    1f10:	8ff9                	and	a5,a5,a4
    1f12:	bfd5                	j	1f06 <ADC_SoftwareStartConvCmd+0xa>

00001f14 <ADC_RegularChannelConfig>:
    1f14:	47a5                	li	a5,9
    1f16:	04b7f863          	bgeu	a5,a1,1f66 <ADC_RegularChannelConfig+0x52>
    1f1a:	ff658713          	addi	a4,a1,-10
    1f1e:	00171793          	slli	a5,a4,0x1
    1f22:	00c52283          	lw	t0,12(a0)
    1f26:	97ba                	add	a5,a5,a4
    1f28:	431d                	li	t1,7
    1f2a:	00f31333          	sll	t1,t1,a5
    1f2e:	fff34313          	not	t1,t1
    1f32:	00537333          	and	t1,t1,t0
    1f36:	00f697b3          	sll	a5,a3,a5
    1f3a:	0067e7b3          	or	a5,a5,t1
    1f3e:	c55c                	sw	a5,12(a0)
    1f40:	4799                	li	a5,6
    1f42:	04c7e363          	bltu	a5,a2,1f88 <ADC_RegularChannelConfig+0x74>
    1f46:	167d                	addi	a2,a2,-1
    1f48:	00261793          	slli	a5,a2,0x2
    1f4c:	963e                	add	a2,a2,a5
    1f4e:	5958                	lw	a4,52(a0)
    1f50:	47fd                	li	a5,31
    1f52:	00c797b3          	sll	a5,a5,a2
    1f56:	fff7c793          	not	a5,a5
    1f5a:	8ff9                	and	a5,a5,a4
    1f5c:	00c595b3          	sll	a1,a1,a2
    1f60:	8ddd                	or	a1,a1,a5
    1f62:	d94c                	sw	a1,52(a0)
    1f64:	8082                	ret
    1f66:	00159793          	slli	a5,a1,0x1
    1f6a:	01052303          	lw	t1,16(a0)
    1f6e:	97ae                	add	a5,a5,a1
    1f70:	471d                	li	a4,7
    1f72:	00f71733          	sll	a4,a4,a5
    1f76:	fff74713          	not	a4,a4
    1f7a:	00677733          	and	a4,a4,t1
    1f7e:	00f697b3          	sll	a5,a3,a5
    1f82:	8f5d                	or	a4,a4,a5
    1f84:	c918                	sw	a4,16(a0)
    1f86:	bf6d                	j	1f40 <ADC_RegularChannelConfig+0x2c>
    1f88:	47b1                	li	a5,12
    1f8a:	02c7e263          	bltu	a5,a2,1fae <ADC_RegularChannelConfig+0x9a>
    1f8e:	1665                	addi	a2,a2,-7
    1f90:	00261793          	slli	a5,a2,0x2
    1f94:	963e                	add	a2,a2,a5
    1f96:	5918                	lw	a4,48(a0)
    1f98:	47fd                	li	a5,31
    1f9a:	00c797b3          	sll	a5,a5,a2
    1f9e:	fff7c793          	not	a5,a5
    1fa2:	8ff9                	and	a5,a5,a4
    1fa4:	00c595b3          	sll	a1,a1,a2
    1fa8:	8ddd                	or	a1,a1,a5
    1faa:	d90c                	sw	a1,48(a0)
    1fac:	8082                	ret
    1fae:	164d                	addi	a2,a2,-13
    1fb0:	00261713          	slli	a4,a2,0x2
    1fb4:	5554                	lw	a3,44(a0)
    1fb6:	963a                	add	a2,a2,a4
    1fb8:	47fd                	li	a5,31
    1fba:	00c797b3          	sll	a5,a5,a2
    1fbe:	fff7c793          	not	a5,a5
    1fc2:	8ff5                	and	a5,a5,a3
    1fc4:	00c595b3          	sll	a1,a1,a2
    1fc8:	8ddd                	or	a1,a1,a5
    1fca:	d54c                	sw	a1,44(a0)
    1fcc:	8082                	ret

00001fce <ADC_Calibration_Vol>:
    1fce:	415c                	lw	a5,4(a0)
    1fd0:	fa000737          	lui	a4,0xfa000
    1fd4:	177d                	addi	a4,a4,-1
    1fd6:	8ff9                	and	a5,a5,a4
    1fd8:	c15c                	sw	a5,4(a0)
    1fda:	415c                	lw	a5,4(a0)
    1fdc:	8ddd                	or	a1,a1,a5
    1fde:	c14c                	sw	a1,4(a0)
    1fe0:	8082                	ret

00001fe2 <DBGMCU_GetCHIPID>:
    1fe2:	1ffff7b7          	lui	a5,0x1ffff
    1fe6:	7c47a503          	lw	a0,1988(a5) # 1ffff7c4 <_data_lma+0x1fffc400>
    1fea:	8082                	ret

00001fec <DMA_DeInit>:
    1fec:	411c                	lw	a5,0(a0)
    1fee:	6741                	lui	a4,0x10
    1ff0:	1779                	addi	a4,a4,-2
    1ff2:	8ff9                	and	a5,a5,a4
    1ff4:	c11c                	sw	a5,0(a0)
    1ff6:	00052023          	sw	zero,0(a0)
    1ffa:	00052223          	sw	zero,4(a0)
    1ffe:	00052423          	sw	zero,8(a0)
    2002:	400207b7          	lui	a5,0x40020
    2006:	00052623          	sw	zero,12(a0)
    200a:	00878713          	addi	a4,a5,8 # 40020008 <__global_pointer$+0x2001f720>
    200e:	00e51763          	bne	a0,a4,201c <DMA_DeInit+0x30>
    2012:	43d8                	lw	a4,4(a5)
    2014:	00f76713          	ori	a4,a4,15
    2018:	c3d8                	sw	a4,4(a5)
    201a:	8082                	ret
    201c:	01c78713          	addi	a4,a5,28
    2020:	00e51663          	bne	a0,a4,202c <DMA_DeInit+0x40>
    2024:	43d8                	lw	a4,4(a5)
    2026:	0f076713          	ori	a4,a4,240
    202a:	b7fd                	j	2018 <DMA_DeInit+0x2c>
    202c:	03078713          	addi	a4,a5,48
    2030:	00e51863          	bne	a0,a4,2040 <DMA_DeInit+0x54>
    2034:	43d8                	lw	a4,4(a5)
    2036:	6685                	lui	a3,0x1
    2038:	f0068693          	addi	a3,a3,-256 # f00 <DMA1_Channel5_IRQHandler+0x44>
    203c:	8f55                	or	a4,a4,a3
    203e:	bfe9                	j	2018 <DMA_DeInit+0x2c>
    2040:	04478713          	addi	a4,a5,68
    2044:	00e51563          	bne	a0,a4,204e <DMA_DeInit+0x62>
    2048:	43d8                	lw	a4,4(a5)
    204a:	66bd                	lui	a3,0xf
    204c:	bfc5                	j	203c <DMA_DeInit+0x50>
    204e:	05878713          	addi	a4,a5,88
    2052:	00e51663          	bne	a0,a4,205e <DMA_DeInit+0x72>
    2056:	43d8                	lw	a4,4(a5)
    2058:	000f06b7          	lui	a3,0xf0
    205c:	b7c5                	j	203c <DMA_DeInit+0x50>
    205e:	06c78713          	addi	a4,a5,108
    2062:	00e51663          	bne	a0,a4,206e <DMA_DeInit+0x82>
    2066:	43d8                	lw	a4,4(a5)
    2068:	00f006b7          	lui	a3,0xf00
    206c:	bfc1                	j	203c <DMA_DeInit+0x50>
    206e:	08078713          	addi	a4,a5,128
    2072:	fae514e3          	bne	a0,a4,201a <DMA_DeInit+0x2e>
    2076:	43d8                	lw	a4,4(a5)
    2078:	0f0006b7          	lui	a3,0xf000
    207c:	b7c1                	j	203c <DMA_DeInit+0x50>

0000207e <DMA_Init>:
    207e:	4118                	lw	a4,0(a0)
    2080:	77e1                	lui	a5,0xffff8
    2082:	07bd                	addi	a5,a5,15
    2084:	5194                	lw	a3,32(a1)
    2086:	8f7d                	and	a4,a4,a5
    2088:	459c                	lw	a5,8(a1)
    208a:	8fd5                	or	a5,a5,a3
    208c:	4994                	lw	a3,16(a1)
    208e:	8fd5                	or	a5,a5,a3
    2090:	49d4                	lw	a3,20(a1)
    2092:	8fd5                	or	a5,a5,a3
    2094:	4d94                	lw	a3,24(a1)
    2096:	8fd5                	or	a5,a5,a3
    2098:	4dd4                	lw	a3,28(a1)
    209a:	8fd5                	or	a5,a5,a3
    209c:	51d4                	lw	a3,36(a1)
    209e:	8fd5                	or	a5,a5,a3
    20a0:	5594                	lw	a3,40(a1)
    20a2:	8fd5                	or	a5,a5,a3
    20a4:	8fd9                	or	a5,a5,a4
    20a6:	c11c                	sw	a5,0(a0)
    20a8:	45dc                	lw	a5,12(a1)
    20aa:	c15c                	sw	a5,4(a0)
    20ac:	419c                	lw	a5,0(a1)
    20ae:	c51c                	sw	a5,8(a0)
    20b0:	41dc                	lw	a5,4(a1)
    20b2:	c55c                	sw	a5,12(a0)
    20b4:	8082                	ret

000020b6 <DMA_Cmd>:
    20b6:	411c                	lw	a5,0(a0)
    20b8:	c589                	beqz	a1,20c2 <DMA_Cmd+0xc>
    20ba:	0017e793          	ori	a5,a5,1
    20be:	c11c                	sw	a5,0(a0)
    20c0:	8082                	ret
    20c2:	6741                	lui	a4,0x10
    20c4:	1779                	addi	a4,a4,-2
    20c6:	8ff9                	and	a5,a5,a4
    20c8:	bfdd                	j	20be <DMA_Cmd+0x8>

000020ca <DMA_ITConfig>:
    20ca:	411c                	lw	a5,0(a0)
    20cc:	c601                	beqz	a2,20d4 <DMA_ITConfig+0xa>
    20ce:	8ddd                	or	a1,a1,a5
    20d0:	c10c                	sw	a1,0(a0)
    20d2:	8082                	ret
    20d4:	fff5c593          	not	a1,a1
    20d8:	8dfd                	and	a1,a1,a5
    20da:	bfdd                	j	20d0 <DMA_ITConfig+0x6>

000020dc <DMA_GetFlagStatus>:
    20dc:	400207b7          	lui	a5,0x40020
    20e0:	439c                	lw	a5,0(a5)
    20e2:	8d7d                	and	a0,a0,a5
    20e4:	00a03533          	snez	a0,a0
    20e8:	8082                	ret

000020ea <DMA_GetITStatus>:
    20ea:	fb7fd2ef          	jal	t0,a0 <__riscv_save_0>
    20ee:	fefff0ef          	jal	ra,20dc <DMA_GetFlagStatus>
    20f2:	fb9fd06f          	j	aa <__riscv_restore_0>

000020f6 <DMA_ClearITPendingBit>:
    20f6:	400207b7          	lui	a5,0x40020
    20fa:	c3c8                	sw	a0,4(a5)
    20fc:	8082                	ret

000020fe <GPIO_DeInit>:
    20fe:	fa3fd2ef          	jal	t0,a0 <__riscv_save_0>
    2102:	400117b7          	lui	a5,0x40011
    2106:	80078713          	addi	a4,a5,-2048 # 40010800 <__global_pointer$+0x2000ff18>
    210a:	00e51a63          	bne	a0,a4,211e <GPIO_DeInit+0x20>
    210e:	4585                	li	a1,1
    2110:	4511                	li	a0,4
    2112:	2c89                	jal	2364 <RCC_APB2PeriphResetCmd>
    2114:	4581                	li	a1,0
    2116:	4511                	li	a0,4
    2118:	24b1                	jal	2364 <RCC_APB2PeriphResetCmd>
    211a:	f91fd06f          	j	aa <__riscv_restore_0>
    211e:	00f51863          	bne	a0,a5,212e <GPIO_DeInit+0x30>
    2122:	4585                	li	a1,1
    2124:	4541                	li	a0,16
    2126:	2c3d                	jal	2364 <RCC_APB2PeriphResetCmd>
    2128:	4581                	li	a1,0
    212a:	4541                	li	a0,16
    212c:	b7f5                	j	2118 <GPIO_DeInit+0x1a>
    212e:	40078793          	addi	a5,a5,1024
    2132:	fef514e3          	bne	a0,a5,211a <GPIO_DeInit+0x1c>
    2136:	4585                	li	a1,1
    2138:	02000513          	li	a0,32
    213c:	2425                	jal	2364 <RCC_APB2PeriphResetCmd>
    213e:	4581                	li	a1,0
    2140:	02000513          	li	a0,32
    2144:	bfd1                	j	2118 <GPIO_DeInit+0x1a>

00002146 <GPIO_AFIODeInit>:
    2146:	f5bfd2ef          	jal	t0,a0 <__riscv_save_0>
    214a:	4585                	li	a1,1
    214c:	4505                	li	a0,1
    214e:	2c19                	jal	2364 <RCC_APB2PeriphResetCmd>
    2150:	4581                	li	a1,0
    2152:	4505                	li	a0,1
    2154:	2c01                	jal	2364 <RCC_APB2PeriphResetCmd>
    2156:	f55fd06f          	j	aa <__riscv_restore_0>

0000215a <GPIO_Init>:
    215a:	4594                	lw	a3,8(a1)
    215c:	0106f793          	andi	a5,a3,16
    2160:	00f6f293          	andi	t0,a3,15
    2164:	c781                	beqz	a5,216c <GPIO_Init+0x12>
    2166:	41dc                	lw	a5,4(a1)
    2168:	00f2e2b3          	or	t0,t0,a5
    216c:	0005d383          	lhu	t2,0(a1)
    2170:	0ff3f793          	andi	a5,t2,255
    2174:	c3a5                	beqz	a5,21d4 <GPIO_Init+0x7a>
    2176:	00052303          	lw	t1,0(a0)
    217a:	1161                	addi	sp,sp,-8
    217c:	c222                	sw	s0,4(sp)
    217e:	c026                	sw	s1,0(sp)
    2180:	4781                	li	a5,0
    2182:	02800413          	li	s0,40
    2186:	04800493          	li	s1,72
    218a:	4705                	li	a4,1
    218c:	00f71633          	sll	a2,a4,a5
    2190:	00c3f733          	and	a4,t2,a2
    2194:	02e61263          	bne	a2,a4,21b8 <GPIO_Init+0x5e>
    2198:	00279593          	slli	a1,a5,0x2
    219c:	473d                	li	a4,15
    219e:	00b71733          	sll	a4,a4,a1
    21a2:	fff74713          	not	a4,a4
    21a6:	00677333          	and	t1,a4,t1
    21aa:	00b295b3          	sll	a1,t0,a1
    21ae:	0065e333          	or	t1,a1,t1
    21b2:	00869d63          	bne	a3,s0,21cc <GPIO_Init+0x72>
    21b6:	c950                	sw	a2,20(a0)
    21b8:	0785                	addi	a5,a5,1
    21ba:	4721                	li	a4,8
    21bc:	fce797e3          	bne	a5,a4,218a <GPIO_Init+0x30>
    21c0:	4412                	lw	s0,4(sp)
    21c2:	00652023          	sw	t1,0(a0)
    21c6:	4482                	lw	s1,0(sp)
    21c8:	0121                	addi	sp,sp,8
    21ca:	8082                	ret
    21cc:	fe9696e3          	bne	a3,s1,21b8 <GPIO_Init+0x5e>
    21d0:	c910                	sw	a2,16(a0)
    21d2:	b7dd                	j	21b8 <GPIO_Init+0x5e>
    21d4:	8082                	ret

000021d6 <GPIO_ReadOutputDataBit>:
    21d6:	4548                	lw	a0,12(a0)
    21d8:	8d6d                	and	a0,a0,a1
    21da:	00a03533          	snez	a0,a0
    21de:	8082                	ret

000021e0 <GPIO_SetBits>:
    21e0:	c90c                	sw	a1,16(a0)
    21e2:	8082                	ret

000021e4 <GPIO_ResetBits>:
    21e4:	c94c                	sw	a1,20(a0)
    21e6:	8082                	ret

000021e8 <NVIC_PriorityGroupConfig>:
    21e8:	92a1ae23          	sw	a0,-1732(gp) # 20000224 <NVIC_Priority_Group>
    21ec:	8082                	ret

000021ee <NVIC_Init>:
    21ee:	93c1a683          	lw	a3,-1732(gp) # 20000224 <NVIC_Priority_Group>
    21f2:	4785                	li	a5,1
    21f4:	2118                	lbu	a4,0(a0)
    21f6:	02f69063          	bne	a3,a5,2216 <NVIC_Init+0x28>
    21fa:	311c                	lbu	a5,1(a0)
    21fc:	02d79c63          	bne	a5,a3,2234 <NVIC_Init+0x46>
    2200:	213c                	lbu	a5,2(a0)
    2202:	079a                	slli	a5,a5,0x6
    2204:	f807e793          	ori	a5,a5,-128
    2208:	e000e6b7          	lui	a3,0xe000e
    220c:	0ff7f793          	andi	a5,a5,255
    2210:	96ba                	add	a3,a3,a4
    2212:	40f68023          	sb	a5,1024(a3) # e000e400 <__global_pointer$+0xc000db18>
    2216:	4685                	li	a3,1
    2218:	00575793          	srli	a5,a4,0x5
    221c:	00e69733          	sll	a4,a3,a4
    2220:	4154                	lw	a3,4(a0)
    2222:	ce89                	beqz	a3,223c <NVIC_Init+0x4e>
    2224:	04078793          	addi	a5,a5,64
    2228:	078a                	slli	a5,a5,0x2
    222a:	e000e6b7          	lui	a3,0xe000e
    222e:	97b6                	add	a5,a5,a3
    2230:	c398                	sw	a4,0(a5)
    2232:	8082                	ret
    2234:	f3ed                	bnez	a5,2216 <NVIC_Init+0x28>
    2236:	213c                	lbu	a5,2(a0)
    2238:	079a                	slli	a5,a5,0x6
    223a:	b7f9                	j	2208 <NVIC_Init+0x1a>
    223c:	06078793          	addi	a5,a5,96
    2240:	b7e5                	j	2228 <NVIC_Init+0x3a>

00002242 <RCC_AdjustHSICalibrationValue>:
    2242:	40021737          	lui	a4,0x40021
    2246:	431c                	lw	a5,0(a4)
    2248:	050e                	slli	a0,a0,0x3
    224a:	f077f793          	andi	a5,a5,-249
    224e:	8d5d                	or	a0,a0,a5
    2250:	c308                	sw	a0,0(a4)
    2252:	8082                	ret

00002254 <RCC_ADCCLKConfig>:
    2254:	400216b7          	lui	a3,0x40021
    2258:	42dc                	lw	a5,4(a3)
    225a:	7741                	lui	a4,0xffff0
    225c:	7ff70713          	addi	a4,a4,2047 # ffff07ff <__global_pointer$+0xdffeff17>
    2260:	8ff9                	and	a5,a5,a4
    2262:	8d5d                	or	a0,a0,a5
    2264:	c2c8                	sw	a0,4(a3)
    2266:	8082                	ret

00002268 <RCC_GetClocksFreq>:
    2268:	e39fd2ef          	jal	t0,a0 <__riscv_save_0>
    226c:	40021737          	lui	a4,0x40021
    2270:	435c                	lw	a5,4(a4)
    2272:	4691                	li	a3,4
    2274:	842a                	mv	s0,a0
    2276:	8bb1                	andi	a5,a5,12
    2278:	00d78563          	beq	a5,a3,2282 <RCC_GetClocksFreq+0x1a>
    227c:	46a1                	li	a3,8
    227e:	08d78063          	beq	a5,a3,22fe <RCC_GetClocksFreq+0x96>
    2282:	016e37b7          	lui	a5,0x16e3
    2286:	60078793          	addi	a5,a5,1536 # 16e3600 <_data_lma+0x16e023c>
    228a:	c01c                	sw	a5,0(s0)
    228c:	400216b7          	lui	a3,0x40021
    2290:	42dc                	lw	a5,4(a3)
    2292:	8391                	srli	a5,a5,0x4
    2294:	00f7f713          	andi	a4,a5,15
    2298:	200007b7          	lui	a5,0x20000
    229c:	0d878793          	addi	a5,a5,216 # 200000d8 <APBAHBPrescTable>
    22a0:	97ba                	add	a5,a5,a4
    22a2:	238c                	lbu	a1,0(a5)
    22a4:	42dc                	lw	a5,4(a3)
    22a6:	4018                	lw	a4,0(s0)
    22a8:	0ff5f593          	andi	a1,a1,255
    22ac:	0807f793          	andi	a5,a5,128
    22b0:	00b75533          	srl	a0,a4,a1
    22b4:	e781                	bnez	a5,22bc <RCC_GetClocksFreq+0x54>
    22b6:	853a                	mv	a0,a4
    22b8:	e1dfd0ef          	jal	ra,d4 <__udivsi3>
    22bc:	c048                	sw	a0,4(s0)
    22be:	c408                	sw	a0,8(s0)
    22c0:	c448                	sw	a0,12(s0)
    22c2:	400217b7          	lui	a5,0x40021
    22c6:	43dc                	lw	a5,4(a5)
    22c8:	468d                	li	a3,3
    22ca:	83ad                	srli	a5,a5,0xb
    22cc:	8bfd                	andi	a5,a5,31
    22ce:	0037d713          	srli	a4,a5,0x3
    22d2:	078a                	slli	a5,a5,0x2
    22d4:	8bf1                	andi	a5,a5,28
    22d6:	8fd9                	or	a5,a5,a4
    22d8:	0137f613          	andi	a2,a5,19
    22dc:	0037f713          	andi	a4,a5,3
    22e0:	00c6f463          	bgeu	a3,a2,22e8 <RCC_GetClocksFreq+0x80>
    22e4:	ff478713          	addi	a4,a5,-12 # 40020ff4 <__global_pointer$+0x2002070c>
    22e8:	200007b7          	lui	a5,0x20000
    22ec:	0c478793          	addi	a5,a5,196 # 200000c4 <ADCPrescTable>
    22f0:	97ba                	add	a5,a5,a4
    22f2:	238c                	lbu	a1,0(a5)
    22f4:	de1fd0ef          	jal	ra,d4 <__udivsi3>
    22f8:	c808                	sw	a0,16(s0)
    22fa:	db1fd06f          	j	aa <__riscv_restore_0>
    22fe:	435c                	lw	a5,4(a4)
    2300:	02dc77b7          	lui	a5,0x2dc7
    2304:	c0078793          	addi	a5,a5,-1024 # 2dc6c00 <_data_lma+0x2dc383c>
    2308:	b749                	j	228a <RCC_GetClocksFreq+0x22>

0000230a <RCC_AHBPeriphClockCmd>:
    230a:	c599                	beqz	a1,2318 <RCC_AHBPeriphClockCmd+0xe>
    230c:	40021737          	lui	a4,0x40021
    2310:	4b5c                	lw	a5,20(a4)
    2312:	8d5d                	or	a0,a0,a5
    2314:	cb48                	sw	a0,20(a4)
    2316:	8082                	ret
    2318:	400217b7          	lui	a5,0x40021
    231c:	4bd8                	lw	a4,20(a5)
    231e:	fff54513          	not	a0,a0
    2322:	8d79                	and	a0,a0,a4
    2324:	cbc8                	sw	a0,20(a5)
    2326:	8082                	ret

00002328 <RCC_APB2PeriphClockCmd>:
    2328:	c599                	beqz	a1,2336 <RCC_APB2PeriphClockCmd+0xe>
    232a:	40021737          	lui	a4,0x40021
    232e:	4f1c                	lw	a5,24(a4)
    2330:	8d5d                	or	a0,a0,a5
    2332:	cf08                	sw	a0,24(a4)
    2334:	8082                	ret
    2336:	400217b7          	lui	a5,0x40021
    233a:	4f98                	lw	a4,24(a5)
    233c:	fff54513          	not	a0,a0
    2340:	8d79                	and	a0,a0,a4
    2342:	cf88                	sw	a0,24(a5)
    2344:	8082                	ret

00002346 <RCC_APB1PeriphClockCmd>:
    2346:	c599                	beqz	a1,2354 <RCC_APB1PeriphClockCmd+0xe>
    2348:	40021737          	lui	a4,0x40021
    234c:	4f5c                	lw	a5,28(a4)
    234e:	8d5d                	or	a0,a0,a5
    2350:	cf48                	sw	a0,28(a4)
    2352:	8082                	ret
    2354:	400217b7          	lui	a5,0x40021
    2358:	4fd8                	lw	a4,28(a5)
    235a:	fff54513          	not	a0,a0
    235e:	8d79                	and	a0,a0,a4
    2360:	cfc8                	sw	a0,28(a5)
    2362:	8082                	ret

00002364 <RCC_APB2PeriphResetCmd>:
    2364:	c599                	beqz	a1,2372 <RCC_APB2PeriphResetCmd+0xe>
    2366:	40021737          	lui	a4,0x40021
    236a:	475c                	lw	a5,12(a4)
    236c:	8d5d                	or	a0,a0,a5
    236e:	c748                	sw	a0,12(a4)
    2370:	8082                	ret
    2372:	400217b7          	lui	a5,0x40021
    2376:	47d8                	lw	a4,12(a5)
    2378:	fff54513          	not	a0,a0
    237c:	8d79                	and	a0,a0,a4
    237e:	c7c8                	sw	a0,12(a5)
    2380:	8082                	ret

00002382 <RCC_APB1PeriphResetCmd>:
    2382:	c599                	beqz	a1,2390 <RCC_APB1PeriphResetCmd+0xe>
    2384:	40021737          	lui	a4,0x40021
    2388:	4b1c                	lw	a5,16(a4)
    238a:	8d5d                	or	a0,a0,a5
    238c:	cb08                	sw	a0,16(a4)
    238e:	8082                	ret
    2390:	400217b7          	lui	a5,0x40021
    2394:	4b98                	lw	a4,16(a5)
    2396:	fff54513          	not	a0,a0
    239a:	8d79                	and	a0,a0,a4
    239c:	cb88                	sw	a0,16(a5)
    239e:	8082                	ret

000023a0 <SPI_I2S_DeInit>:
    23a0:	400137b7          	lui	a5,0x40013
    23a4:	00f51e63          	bne	a0,a5,23c0 <SPI_I2S_DeInit+0x20>
    23a8:	cf9fd2ef          	jal	t0,a0 <__riscv_save_0>
    23ac:	4585                	li	a1,1
    23ae:	6505                	lui	a0,0x1
    23b0:	fb5ff0ef          	jal	ra,2364 <RCC_APB2PeriphResetCmd>
    23b4:	4581                	li	a1,0
    23b6:	6505                	lui	a0,0x1
    23b8:	fadff0ef          	jal	ra,2364 <RCC_APB2PeriphResetCmd>
    23bc:	ceffd06f          	j	aa <__riscv_restore_0>
    23c0:	8082                	ret

000023c2 <SPI_Init>:
    23c2:	211a                	lhu	a4,0(a0)
    23c4:	678d                	lui	a5,0x3
    23c6:	04078793          	addi	a5,a5,64 # 3040 <font7x10+0x184>
    23ca:	21b6                	lhu	a3,2(a1)
    23cc:	8f7d                	and	a4,a4,a5
    23ce:	219e                	lhu	a5,0(a1)
    23d0:	8fd5                	or	a5,a5,a3
    23d2:	21d6                	lhu	a3,4(a1)
    23d4:	8fd5                	or	a5,a5,a3
    23d6:	21f6                	lhu	a3,6(a1)
    23d8:	8fd5                	or	a5,a5,a3
    23da:	2596                	lhu	a3,8(a1)
    23dc:	8fd5                	or	a5,a5,a3
    23de:	25b6                	lhu	a3,10(a1)
    23e0:	8fd5                	or	a5,a5,a3
    23e2:	25d6                	lhu	a3,12(a1)
    23e4:	8fd5                	or	a5,a5,a3
    23e6:	25f6                	lhu	a3,14(a1)
    23e8:	8fd5                	or	a5,a5,a3
    23ea:	8fd9                	or	a5,a5,a4
    23ec:	a11e                	sh	a5,0(a0)
    23ee:	299e                	lhu	a5,16(a1)
    23f0:	a91e                	sh	a5,16(a0)
    23f2:	8082                	ret

000023f4 <SPI_Cmd>:
    23f4:	211e                	lhu	a5,0(a0)
    23f6:	c589                	beqz	a1,2400 <SPI_Cmd+0xc>
    23f8:	0407e793          	ori	a5,a5,64
    23fc:	a11e                	sh	a5,0(a0)
    23fe:	8082                	ret
    2400:	07c2                	slli	a5,a5,0x10
    2402:	83c1                	srli	a5,a5,0x10
    2404:	fbf7f793          	andi	a5,a5,-65
    2408:	07c2                	slli	a5,a5,0x10
    240a:	83c1                	srli	a5,a5,0x10
    240c:	bfc5                	j	23fc <SPI_Cmd+0x8>

0000240e <SPI_I2S_DMACmd>:
    240e:	215e                	lhu	a5,4(a0)
    2410:	c601                	beqz	a2,2418 <SPI_I2S_DMACmd+0xa>
    2412:	8ddd                	or	a1,a1,a5
    2414:	a14e                	sh	a1,4(a0)
    2416:	8082                	ret
    2418:	fff5c593          	not	a1,a1
    241c:	8dfd                	and	a1,a1,a5
    241e:	bfdd                	j	2414 <SPI_I2S_DMACmd+0x6>

00002420 <TIM_DeInit>:
    2420:	c81fd2ef          	jal	t0,a0 <__riscv_save_0>
    2424:	400137b7          	lui	a5,0x40013
    2428:	c0078793          	addi	a5,a5,-1024 # 40012c00 <__global_pointer$+0x20012318>
    242c:	00f51f63          	bne	a0,a5,244a <TIM_DeInit+0x2a>
    2430:	6405                	lui	s0,0x1
    2432:	4585                	li	a1,1
    2434:	80040513          	addi	a0,s0,-2048 # 800 <tft_fill_rect+0x44>
    2438:	f2dff0ef          	jal	ra,2364 <RCC_APB2PeriphResetCmd>
    243c:	4581                	li	a1,0
    243e:	80040513          	addi	a0,s0,-2048
    2442:	f23ff0ef          	jal	ra,2364 <RCC_APB2PeriphResetCmd>
    2446:	c65fd06f          	j	aa <__riscv_restore_0>
    244a:	400007b7          	lui	a5,0x40000
    244e:	fef51ce3          	bne	a0,a5,2446 <TIM_DeInit+0x26>
    2452:	4585                	li	a1,1
    2454:	4505                	li	a0,1
    2456:	f2dff0ef          	jal	ra,2382 <RCC_APB1PeriphResetCmd>
    245a:	4581                	li	a1,0
    245c:	4505                	li	a0,1
    245e:	f25ff0ef          	jal	ra,2382 <RCC_APB1PeriphResetCmd>
    2462:	b7d5                	j	2446 <TIM_DeInit+0x26>

00002464 <TIM_TimeBaseInit>:
    2464:	211e                	lhu	a5,0(a0)
    2466:	40013737          	lui	a4,0x40013
    246a:	c0070713          	addi	a4,a4,-1024 # 40012c00 <__global_pointer$+0x20012318>
    246e:	07c2                	slli	a5,a5,0x10
    2470:	83c1                	srli	a5,a5,0x10
    2472:	00e50663          	beq	a0,a4,247e <TIM_TimeBaseInit+0x1a>
    2476:	40000737          	lui	a4,0x40000
    247a:	00e51663          	bne	a0,a4,2486 <TIM_TimeBaseInit+0x22>
    247e:	21ba                	lhu	a4,2(a1)
    2480:	f8f7f793          	andi	a5,a5,-113
    2484:	8fd9                	or	a5,a5,a4
    2486:	21fa                	lhu	a4,6(a1)
    2488:	cff7f793          	andi	a5,a5,-769
    248c:	07c2                	slli	a5,a5,0x10
    248e:	83c1                	srli	a5,a5,0x10
    2490:	8fd9                	or	a5,a5,a4
    2492:	a11e                	sh	a5,0(a0)
    2494:	21de                	lhu	a5,4(a1)
    2496:	b55e                	sh	a5,44(a0)
    2498:	219e                	lhu	a5,0(a1)
    249a:	b51e                	sh	a5,40(a0)
    249c:	400137b7          	lui	a5,0x40013
    24a0:	c0078793          	addi	a5,a5,-1024 # 40012c00 <__global_pointer$+0x20012318>
    24a4:	00f51463          	bne	a0,a5,24ac <TIM_TimeBaseInit+0x48>
    24a8:	259c                	lbu	a5,8(a1)
    24aa:	b91e                	sh	a5,48(a0)
    24ac:	4785                	li	a5,1
    24ae:	a95e                	sh	a5,20(a0)
    24b0:	8082                	ret

000024b2 <TIM_OC1Init>:
    24b2:	311e                	lhu	a5,32(a0)
    24b4:	2192                	lhu	a2,0(a1)
    24b6:	0025d303          	lhu	t1,2(a1)
    24ba:	07c2                	slli	a5,a5,0x10
    24bc:	83c1                	srli	a5,a5,0x10
    24be:	9bf9                	andi	a5,a5,-2
    24c0:	07c2                	slli	a5,a5,0x10
    24c2:	83c1                	srli	a5,a5,0x10
    24c4:	b11e                	sh	a5,32(a0)
    24c6:	311e                	lhu	a5,32(a0)
    24c8:	2156                	lhu	a3,4(a0)
    24ca:	2d1a                	lhu	a4,24(a0)
    24cc:	07c2                	slli	a5,a5,0x10
    24ce:	83c1                	srli	a5,a5,0x10
    24d0:	0742                	slli	a4,a4,0x10
    24d2:	8341                	srli	a4,a4,0x10
    24d4:	f8c77713          	andi	a4,a4,-116
    24d8:	8f51                	or	a4,a4,a2
    24da:	2592                	lhu	a2,8(a1)
    24dc:	9bf5                	andi	a5,a5,-3
    24de:	06c2                	slli	a3,a3,0x10
    24e0:	00666633          	or	a2,a2,t1
    24e4:	8fd1                	or	a5,a5,a2
    24e6:	40013637          	lui	a2,0x40013
    24ea:	c0060613          	addi	a2,a2,-1024 # 40012c00 <__global_pointer$+0x20012318>
    24ee:	82c1                	srli	a3,a3,0x10
    24f0:	02c51063          	bne	a0,a2,2510 <TIM_OC1Init+0x5e>
    24f4:	25b2                	lhu	a2,10(a1)
    24f6:	9bdd                	andi	a5,a5,-9
    24f8:	00e5d303          	lhu	t1,14(a1)
    24fc:	8fd1                	or	a5,a5,a2
    24fe:	21d2                	lhu	a2,4(a1)
    2500:	9bed                	andi	a5,a5,-5
    2502:	cff6f693          	andi	a3,a3,-769
    2506:	8fd1                	or	a5,a5,a2
    2508:	25d2                	lhu	a2,12(a1)
    250a:	00666633          	or	a2,a2,t1
    250e:	8ed1                	or	a3,a3,a2
    2510:	a156                	sh	a3,4(a0)
    2512:	ad1a                	sh	a4,24(a0)
    2514:	21fa                	lhu	a4,6(a1)
    2516:	d958                	sw	a4,52(a0)
    2518:	b11e                	sh	a5,32(a0)
    251a:	8082                	ret

0000251c <TIM_OC2Init>:
    251c:	311e                	lhu	a5,32(a0)
    251e:	7765                	lui	a4,0xffff9
    2520:	cff70713          	addi	a4,a4,-769 # ffff8cff <__global_pointer$+0xdfff8417>
    2524:	07c2                	slli	a5,a5,0x10
    2526:	83c1                	srli	a5,a5,0x10
    2528:	9bbd                	andi	a5,a5,-17
    252a:	07c2                	slli	a5,a5,0x10
    252c:	83c1                	srli	a5,a5,0x10
    252e:	b11e                	sh	a5,32(a0)
    2530:	311e                	lhu	a5,32(a0)
    2532:	2156                	lhu	a3,4(a0)
    2534:	0085d303          	lhu	t1,8(a1)
    2538:	07c2                	slli	a5,a5,0x10
    253a:	01069613          	slli	a2,a3,0x10
    253e:	2d16                	lhu	a3,24(a0)
    2540:	83c1                	srli	a5,a5,0x10
    2542:	fdf7f793          	andi	a5,a5,-33
    2546:	8f75                	and	a4,a4,a3
    2548:	2196                	lhu	a3,0(a1)
    254a:	8241                	srli	a2,a2,0x10
    254c:	06a2                	slli	a3,a3,0x8
    254e:	8f55                	or	a4,a4,a3
    2550:	21b6                	lhu	a3,2(a1)
    2552:	0742                	slli	a4,a4,0x10
    2554:	8341                	srli	a4,a4,0x10
    2556:	0066e6b3          	or	a3,a3,t1
    255a:	0692                	slli	a3,a3,0x4
    255c:	8fd5                	or	a5,a5,a3
    255e:	400136b7          	lui	a3,0x40013
    2562:	07c2                	slli	a5,a5,0x10
    2564:	c0068693          	addi	a3,a3,-1024 # 40012c00 <__global_pointer$+0x20012318>
    2568:	83c1                	srli	a5,a5,0x10
    256a:	02d51e63          	bne	a0,a3,25a6 <TIM_OC2Init+0x8a>
    256e:	25b6                	lhu	a3,10(a1)
    2570:	f7f7f793          	andi	a5,a5,-129
    2574:	00c5d303          	lhu	t1,12(a1)
    2578:	0692                	slli	a3,a3,0x4
    257a:	8fd5                	or	a5,a5,a3
    257c:	21d6                	lhu	a3,4(a1)
    257e:	07c2                	slli	a5,a5,0x10
    2580:	83c1                	srli	a5,a5,0x10
    2582:	0692                	slli	a3,a3,0x4
    2584:	fbf7f793          	andi	a5,a5,-65
    2588:	8fd5                	or	a5,a5,a3
    258a:	76fd                	lui	a3,0xfffff
    258c:	3ff68693          	addi	a3,a3,1023 # fffff3ff <__global_pointer$+0xdfffeb17>
    2590:	8ef1                	and	a3,a3,a2
    2592:	25f2                	lhu	a2,14(a1)
    2594:	07c2                	slli	a5,a5,0x10
    2596:	83c1                	srli	a5,a5,0x10
    2598:	00666633          	or	a2,a2,t1
    259c:	060a                	slli	a2,a2,0x2
    259e:	8ed1                	or	a3,a3,a2
    25a0:	01069613          	slli	a2,a3,0x10
    25a4:	8241                	srli	a2,a2,0x10
    25a6:	a152                	sh	a2,4(a0)
    25a8:	ad1a                	sh	a4,24(a0)
    25aa:	21fa                	lhu	a4,6(a1)
    25ac:	dd18                	sw	a4,56(a0)
    25ae:	b11e                	sh	a5,32(a0)
    25b0:	8082                	ret

000025b2 <TIM_BDTRConfig>:
    25b2:	21ba                	lhu	a4,2(a1)
    25b4:	219e                	lhu	a5,0(a1)
    25b6:	8fd9                	or	a5,a5,a4
    25b8:	21da                	lhu	a4,4(a1)
    25ba:	8fd9                	or	a5,a5,a4
    25bc:	21fa                	lhu	a4,6(a1)
    25be:	8fd9                	or	a5,a5,a4
    25c0:	259a                	lhu	a4,8(a1)
    25c2:	8fd9                	or	a5,a5,a4
    25c4:	25ba                	lhu	a4,10(a1)
    25c6:	8fd9                	or	a5,a5,a4
    25c8:	25da                	lhu	a4,12(a1)
    25ca:	8fd9                	or	a5,a5,a4
    25cc:	04f51223          	sh	a5,68(a0) # 1044 <init_ADC+0x58>
    25d0:	8082                	ret

000025d2 <TIM_Cmd>:
    25d2:	211e                	lhu	a5,0(a0)
    25d4:	c589                	beqz	a1,25de <TIM_Cmd+0xc>
    25d6:	0017e793          	ori	a5,a5,1
    25da:	a11e                	sh	a5,0(a0)
    25dc:	8082                	ret
    25de:	07c2                	slli	a5,a5,0x10
    25e0:	83c1                	srli	a5,a5,0x10
    25e2:	9bf9                	andi	a5,a5,-2
    25e4:	07c2                	slli	a5,a5,0x10
    25e6:	83c1                	srli	a5,a5,0x10
    25e8:	bfcd                	j	25da <TIM_Cmd+0x8>

000025ea <TIM_CtrlPWMOutputs>:
    25ea:	04455783          	lhu	a5,68(a0)
    25ee:	c591                	beqz	a1,25fa <TIM_CtrlPWMOutputs+0x10>
    25f0:	6721                	lui	a4,0x8
    25f2:	8fd9                	or	a5,a5,a4
    25f4:	04f51223          	sh	a5,68(a0)
    25f8:	8082                	ret
    25fa:	07c6                	slli	a5,a5,0x11
    25fc:	83c5                	srli	a5,a5,0x11
    25fe:	bfdd                	j	25f4 <TIM_CtrlPWMOutputs+0xa>

00002600 <TIM_ITConfig>:
    2600:	255e                	lhu	a5,12(a0)
    2602:	c601                	beqz	a2,260a <TIM_ITConfig+0xa>
    2604:	8ddd                	or	a1,a1,a5
    2606:	a54e                	sh	a1,12(a0)
    2608:	8082                	ret
    260a:	fff5c593          	not	a1,a1
    260e:	8dfd                	and	a1,a1,a5
    2610:	bfdd                	j	2606 <TIM_ITConfig+0x6>

00002612 <TIM_DMACmd>:
    2612:	a8ffd2ef          	jal	t0,a0 <__riscv_save_0>
    2616:	febff0ef          	jal	ra,2600 <TIM_ITConfig>
    261a:	a91fd06f          	j	aa <__riscv_restore_0>

0000261e <TIM_ARRPreloadConfig>:
    261e:	211e                	lhu	a5,0(a0)
    2620:	c589                	beqz	a1,262a <TIM_ARRPreloadConfig+0xc>
    2622:	0807e793          	ori	a5,a5,128
    2626:	a11e                	sh	a5,0(a0)
    2628:	8082                	ret
    262a:	07c2                	slli	a5,a5,0x10
    262c:	83c1                	srli	a5,a5,0x10
    262e:	f7f7f793          	andi	a5,a5,-129
    2632:	07c2                	slli	a5,a5,0x10
    2634:	83c1                	srli	a5,a5,0x10
    2636:	bfc5                	j	2626 <TIM_ARRPreloadConfig+0x8>

00002638 <TIM_OC1PreloadConfig>:
    2638:	2d1e                	lhu	a5,24(a0)
    263a:	07c2                	slli	a5,a5,0x10
    263c:	83c1                	srli	a5,a5,0x10
    263e:	9bdd                	andi	a5,a5,-9
    2640:	8ddd                	or	a1,a1,a5
    2642:	ad0e                	sh	a1,24(a0)
    2644:	8082                	ret

00002646 <TIM_OC2PreloadConfig>:
    2646:	2d1a                	lhu	a4,24(a0)
    2648:	77fd                	lui	a5,0xfffff
    264a:	7ff78793          	addi	a5,a5,2047 # fffff7ff <__global_pointer$+0xdfffef17>
    264e:	8ff9                	and	a5,a5,a4
    2650:	05a2                	slli	a1,a1,0x8
    2652:	8fcd                	or	a5,a5,a1
    2654:	07c2                	slli	a5,a5,0x10
    2656:	83c1                	srli	a5,a5,0x10
    2658:	ad1e                	sh	a5,24(a0)
    265a:	8082                	ret

0000265c <TIM_GetITStatus>:
    265c:	291e                	lhu	a5,16(a0)
    265e:	254a                	lhu	a0,12(a0)
    2660:	8fed                	and	a5,a5,a1
    2662:	0542                	slli	a0,a0,0x10
    2664:	8141                	srli	a0,a0,0x10
    2666:	c789                	beqz	a5,2670 <TIM_GetITStatus+0x14>
    2668:	8d6d                	and	a0,a0,a1
    266a:	00a03533          	snez	a0,a0
    266e:	8082                	ret
    2670:	4501                	li	a0,0
    2672:	8082                	ret

00002674 <TIM_ClearITPendingBit>:
    2674:	fff5c593          	not	a1,a1
    2678:	05c2                	slli	a1,a1,0x10
    267a:	81c1                	srli	a1,a1,0x10
    267c:	a90e                	sh	a1,16(a0)
    267e:	8082                	ret

00002680 <USART_DeInit>:
    2680:	400147b7          	lui	a5,0x40014
    2684:	80078793          	addi	a5,a5,-2048 # 40013800 <__global_pointer$+0x20012f18>
    2688:	00f51e63          	bne	a0,a5,26a4 <USART_DeInit+0x24>
    268c:	a15fd2ef          	jal	t0,a0 <__riscv_save_0>
    2690:	4585                	li	a1,1
    2692:	6511                	lui	a0,0x4
    2694:	cd1ff0ef          	jal	ra,2364 <RCC_APB2PeriphResetCmd>
    2698:	4581                	li	a1,0
    269a:	6511                	lui	a0,0x4
    269c:	cc9ff0ef          	jal	ra,2364 <RCC_APB2PeriphResetCmd>
    26a0:	a0bfd06f          	j	aa <__riscv_restore_0>
    26a4:	8082                	ret

000026a6 <USART_Init>:
    26a6:	9fbfd2ef          	jal	t0,a0 <__riscv_save_0>
    26aa:	2916                	lhu	a3,16(a0)
    26ac:	77f5                	lui	a5,0xffffd
    26ae:	17fd                	addi	a5,a5,-1
    26b0:	8ff5                	and	a5,a5,a3
    26b2:	21f6                	lhu	a3,6(a1)
    26b4:	25da                	lhu	a4,12(a1)
    26b6:	1121                	addi	sp,sp,-24
    26b8:	8fd5                	or	a5,a5,a3
    26ba:	a91e                	sh	a5,16(a0)
    26bc:	2556                	lhu	a3,12(a0)
    26be:	77fd                	lui	a5,0xfffff
    26c0:	9f378793          	addi	a5,a5,-1549 # ffffe9f3 <__global_pointer$+0xdfffe10b>
    26c4:	8ff5                	and	a5,a5,a3
    26c6:	21d6                	lhu	a3,4(a1)
    26c8:	842a                	mv	s0,a0
    26ca:	c02e                	sw	a1,0(sp)
    26cc:	8fd5                	or	a5,a5,a3
    26ce:	2596                	lhu	a3,8(a1)
    26d0:	8fd5                	or	a5,a5,a3
    26d2:	25b6                	lhu	a3,10(a1)
    26d4:	8fd5                	or	a5,a5,a3
    26d6:	a55e                	sh	a5,12(a0)
    26d8:	295e                	lhu	a5,20(a0)
    26da:	07c2                	slli	a5,a5,0x10
    26dc:	83c1                	srli	a5,a5,0x10
    26de:	cff7f793          	andi	a5,a5,-769
    26e2:	8f5d                	or	a4,a4,a5
    26e4:	a95a                	sh	a4,20(a0)
    26e6:	0048                	addi	a0,sp,4
    26e8:	b81ff0ef          	jal	ra,2268 <RCC_GetClocksFreq>
    26ec:	400147b7          	lui	a5,0x40014
    26f0:	80078793          	addi	a5,a5,-2048 # 40013800 <__global_pointer$+0x20012f18>
    26f4:	4582                	lw	a1,0(sp)
    26f6:	06f41263          	bne	s0,a5,275a <USART_Init+0xb4>
    26fa:	47c2                	lw	a5,16(sp)
    26fc:	245a                	lhu	a4,12(s0)
    26fe:	00179513          	slli	a0,a5,0x1
    2702:	953e                	add	a0,a0,a5
    2704:	0742                	slli	a4,a4,0x10
    2706:	050e                	slli	a0,a0,0x3
    2708:	8741                	srai	a4,a4,0x10
    270a:	953e                	add	a0,a0,a5
    270c:	418c                	lw	a1,0(a1)
    270e:	04075863          	bgez	a4,275e <USART_Init+0xb8>
    2712:	0586                	slli	a1,a1,0x1
    2714:	9c1fd0ef          	jal	ra,d4 <__udivsi3>
    2718:	06400593          	li	a1,100
    271c:	c02a                	sw	a0,0(sp)
    271e:	9b7fd0ef          	jal	ra,d4 <__udivsi3>
    2722:	4782                	lw	a5,0(sp)
    2724:	00451493          	slli	s1,a0,0x4
    2728:	06400593          	li	a1,100
    272c:	853e                	mv	a0,a5
    272e:	9d3fd0ef          	jal	ra,100 <__umodsi3>
    2732:	245e                	lhu	a5,12(s0)
    2734:	07c2                	slli	a5,a5,0x10
    2736:	87c1                	srai	a5,a5,0x10
    2738:	0207d563          	bgez	a5,2762 <USART_Init+0xbc>
    273c:	050e                	slli	a0,a0,0x3
    273e:	06400593          	li	a1,100
    2742:	03250513          	addi	a0,a0,50 # 4032 <_data_lma+0xc6e>
    2746:	98ffd0ef          	jal	ra,d4 <__udivsi3>
    274a:	891d                	andi	a0,a0,7
    274c:	8cc9                	or	s1,s1,a0
    274e:	04c2                	slli	s1,s1,0x10
    2750:	80c1                	srli	s1,s1,0x10
    2752:	a406                	sh	s1,8(s0)
    2754:	0161                	addi	sp,sp,24
    2756:	955fd06f          	j	aa <__riscv_restore_0>
    275a:	47b2                	lw	a5,12(sp)
    275c:	b745                	j	26fc <USART_Init+0x56>
    275e:	058a                	slli	a1,a1,0x2
    2760:	bf55                	j	2714 <USART_Init+0x6e>
    2762:	0512                	slli	a0,a0,0x4
    2764:	06400593          	li	a1,100
    2768:	03250513          	addi	a0,a0,50
    276c:	969fd0ef          	jal	ra,d4 <__udivsi3>
    2770:	893d                	andi	a0,a0,15
    2772:	bfe9                	j	274c <USART_Init+0xa6>

00002774 <USART_Cmd>:
    2774:	c591                	beqz	a1,2780 <USART_Cmd+0xc>
    2776:	255e                	lhu	a5,12(a0)
    2778:	6709                	lui	a4,0x2
    277a:	8fd9                	or	a5,a5,a4
    277c:	a55e                	sh	a5,12(a0)
    277e:	8082                	ret
    2780:	255a                	lhu	a4,12(a0)
    2782:	77f9                	lui	a5,0xffffe
    2784:	17fd                	addi	a5,a5,-1
    2786:	8ff9                	and	a5,a5,a4
    2788:	bfd5                	j	277c <USART_Cmd+0x8>

0000278a <USART_SendData>:
    278a:	1ff5f593          	andi	a1,a1,511
    278e:	a14e                	sh	a1,4(a0)
    2790:	8082                	ret

00002792 <USART_GetFlagStatus>:
    2792:	210a                	lhu	a0,0(a0)
    2794:	8d6d                	and	a0,a0,a1
    2796:	00a03533          	snez	a0,a0
    279a:	8082                	ret

0000279c <Delay_Init>:
    279c:	905fd2ef          	jal	t0,a0 <__riscv_save_0>
    27a0:	200007b7          	lui	a5,0x20000
    27a4:	0c07a503          	lw	a0,192(a5) # 200000c0 <SystemCoreClock>
    27a8:	007a15b7          	lui	a1,0x7a1
    27ac:	20058593          	addi	a1,a1,512 # 7a1200 <_data_lma+0x79de3c>
    27b0:	925fd0ef          	jal	ra,d4 <__udivsi3>
    27b4:	0ff57513          	andi	a0,a0,255
    27b8:	94a18123          	sb	a0,-1726(gp) # 2000022a <p_us>
    27bc:	00551793          	slli	a5,a0,0x5
    27c0:	8f89                	sub	a5,a5,a0
    27c2:	078a                	slli	a5,a5,0x2
    27c4:	953e                	add	a0,a0,a5
    27c6:	050e                	slli	a0,a0,0x3
    27c8:	94a19023          	sh	a0,-1728(gp) # 20000228 <p_ms>
    27cc:	8dffd06f          	j	aa <__riscv_restore_0>

000027d0 <Delay_Ms>:
    27d0:	8d1fd2ef          	jal	t0,a0 <__riscv_save_0>
    27d4:	e000f437          	lui	s0,0xe000f
    27d8:	405c                	lw	a5,4(s0)
    27da:	85aa                	mv	a1,a0
    27dc:	9bf9                	andi	a5,a5,-2
    27de:	c05c                	sw	a5,4(s0)
    27e0:	9401d503          	lhu	a0,-1728(gp) # 20000228 <p_ms>
    27e4:	8d1fd0ef          	jal	ra,b4 <__mulsi3>
    27e8:	c808                	sw	a0,16(s0)
    27ea:	00042423          	sw	zero,8(s0) # e000f008 <__global_pointer$+0xc000e720>
    27ee:	401c                	lw	a5,0(s0)
    27f0:	0017e793          	ori	a5,a5,1
    27f4:	c01c                	sw	a5,0(s0)
    27f6:	e000f7b7          	lui	a5,0xe000f
    27fa:	43d8                	lw	a4,4(a5)
    27fc:	8b05                	andi	a4,a4,1
    27fe:	df75                	beqz	a4,27fa <Delay_Ms+0x2a>
    2800:	4398                	lw	a4,0(a5)
    2802:	9b79                	andi	a4,a4,-2
    2804:	c398                	sw	a4,0(a5)
    2806:	8a5fd06f          	j	aa <__riscv_restore_0>

0000280a <USART_Printf_Init>:
    280a:	897fd2ef          	jal	t0,a0 <__riscv_save_0>
    280e:	842a                	mv	s0,a0
    2810:	6511                	lui	a0,0x4
    2812:	1111                	addi	sp,sp,-28
    2814:	4585                	li	a1,1
    2816:	02050513          	addi	a0,a0,32 # 4020 <_data_lma+0xc5c>
    281a:	b0fff0ef          	jal	ra,2328 <RCC_APB2PeriphClockCmd>
    281e:	02000793          	li	a5,32
    2822:	807c                	sh	a5,0(sp)
    2824:	40011537          	lui	a0,0x40011
    2828:	478d                	li	a5,3
    282a:	c23e                	sw	a5,4(sp)
    282c:	858a                	mv	a1,sp
    282e:	47e1                	li	a5,24
    2830:	40050513          	addi	a0,a0,1024 # 40011400 <__global_pointer$+0x20010b18>
    2834:	c43e                	sw	a5,8(sp)
    2836:	925ff0ef          	jal	ra,215a <GPIO_Init>
    283a:	c622                	sw	s0,12(sp)
    283c:	40014437          	lui	s0,0x40014
    2840:	000807b7          	lui	a5,0x80
    2844:	006c                	addi	a1,sp,12
    2846:	80040513          	addi	a0,s0,-2048 # 40013800 <__global_pointer$+0x20012f18>
    284a:	ca3e                	sw	a5,20(sp)
    284c:	c802                	sw	zero,16(sp)
    284e:	00011c23          	sh	zero,24(sp)
    2852:	e55ff0ef          	jal	ra,26a6 <USART_Init>
    2856:	4585                	li	a1,1
    2858:	80040513          	addi	a0,s0,-2048
    285c:	f19ff0ef          	jal	ra,2774 <USART_Cmd>
    2860:	0171                	addi	sp,sp,28
    2862:	849fd06f          	j	aa <__riscv_restore_0>

00002866 <_write>:
    2866:	83bfd2ef          	jal	t0,a0 <__riscv_save_0>
    286a:	1171                	addi	sp,sp,-4
    286c:	84ae                	mv	s1,a1
    286e:	4401                	li	s0,0
    2870:	02c45f63          	bge	s0,a2,28ae <_write+0x48>
    2874:	400147b7          	lui	a5,0x40014
    2878:	80078713          	addi	a4,a5,-2048 # 40013800 <__global_pointer$+0x20012f18>
    287c:	853a                	mv	a0,a4
    287e:	04000593          	li	a1,64
    2882:	c032                	sw	a2,0(sp)
    2884:	f0fff0ef          	jal	ra,2792 <USART_GetFlagStatus>
    2888:	400147b7          	lui	a5,0x40014
    288c:	80078713          	addi	a4,a5,-2048 # 40013800 <__global_pointer$+0x20012f18>
    2890:	4602                	lw	a2,0(sp)
    2892:	d56d                	beqz	a0,287c <_write+0x16>
    2894:	00848733          	add	a4,s1,s0
    2898:	00070583          	lb	a1,0(a4) # 2000 <DMA_DeInit+0x14>
    289c:	80078513          	addi	a0,a5,-2048
    28a0:	0405                	addi	s0,s0,1
    28a2:	05c2                	slli	a1,a1,0x10
    28a4:	81c1                	srli	a1,a1,0x10
    28a6:	ee5ff0ef          	jal	ra,278a <USART_SendData>
    28aa:	4602                	lw	a2,0(sp)
    28ac:	b7d1                	j	2870 <_write+0xa>
    28ae:	8532                	mv	a0,a2
    28b0:	0111                	addi	sp,sp,4
    28b2:	ff8fd06f          	j	aa <__riscv_restore_0>

000028b6 <printchar>:
    28b6:	1141                	addi	sp,sp,-16
    28b8:	c606                	sw	ra,12(sp)
    28ba:	c02e                	sw	a1,0(sp)
    28bc:	cd0d                	beqz	a0,28f6 <printchar+0x40>
    28be:	4118                	lw	a4,0(a0)
    28c0:	87aa                	mv	a5,a0
    28c2:	c305                	beqz	a4,28e2 <printchar+0x2c>
    28c4:	4158                	lw	a4,4(a0)
    28c6:	557d                	li	a0,-1
    28c8:	cb11                	beqz	a4,28dc <printchar+0x26>
    28ca:	4685                	li	a3,1
    28cc:	00d71b63          	bne	a4,a3,28e2 <printchar+0x2c>
    28d0:	4798                	lw	a4,8(a5)
    28d2:	00070023          	sb	zero,0(a4)
    28d6:	0007a223          	sw	zero,4(a5)
    28da:	4505                	li	a0,1
    28dc:	40b2                	lw	ra,12(sp)
    28de:	0141                	addi	sp,sp,16
    28e0:	8082                	ret
    28e2:	4798                	lw	a4,8(a5)
    28e4:	4682                	lw	a3,0(sp)
    28e6:	a314                	sb	a3,0(a4)
    28e8:	4798                	lw	a4,8(a5)
    28ea:	0705                	addi	a4,a4,1
    28ec:	c798                	sw	a4,8(a5)
    28ee:	43d8                	lw	a4,4(a5)
    28f0:	177d                	addi	a4,a4,-1
    28f2:	c3d8                	sw	a4,4(a5)
    28f4:	b7dd                	j	28da <printchar+0x24>
    28f6:	4605                	li	a2,1
    28f8:	858a                	mv	a1,sp
    28fa:	f6dff0ef          	jal	ra,2866 <_write>
    28fe:	bff1                	j	28da <printchar+0x24>

00002900 <prints>:
    2900:	1101                	addi	sp,sp,-32
    2902:	cc22                	sw	s0,24(sp)
    2904:	c22e                	sw	a1,4(sp)
    2906:	ce06                	sw	ra,28(sp)
    2908:	ca26                	sw	s1,20(sp)
    290a:	842a                	mv	s0,a0
    290c:	4781                	li	a5,0
    290e:	02000593          	li	a1,32
    2912:	02064563          	bltz	a2,293c <prints+0x3c>
    2916:	4592                	lw	a1,4(sp)
    2918:	95be                	add	a1,a1,a5
    291a:	00058583          	lb	a1,0(a1)
    291e:	e58d                	bnez	a1,2948 <prints+0x48>
    2920:	02c7d863          	bge	a5,a2,2950 <prints+0x50>
    2924:	02e7d463          	bge	a5,a4,294c <prints+0x4c>
    2928:	8e19                	sub	a2,a2,a4
    292a:	02000513          	li	a0,32
    292e:	0026f593          	andi	a1,a3,2
    2932:	c02a                	sw	a0,0(sp)
    2934:	c589                	beqz	a1,293e <prints+0x3e>
    2936:	e701                	bnez	a4,293e <prints+0x3e>
    2938:	03000593          	li	a1,48
    293c:	c02e                	sw	a1,0(sp)
    293e:	8a85                	andi	a3,a3,1
    2940:	4481                	li	s1,0
    2942:	ea9d                	bnez	a3,2978 <prints+0x78>
    2944:	84b2                	mv	s1,a2
    2946:	a015                	j	296a <prints+0x6a>
    2948:	0785                	addi	a5,a5,1
    294a:	b7f1                	j	2916 <prints+0x16>
    294c:	8e1d                	sub	a2,a2,a5
    294e:	bff1                	j	292a <prints+0x2a>
    2950:	4601                	li	a2,0
    2952:	bfe1                	j	292a <prints+0x2a>
    2954:	4582                	lw	a1,0(sp)
    2956:	8522                	mv	a0,s0
    2958:	c83a                	sw	a4,16(sp)
    295a:	c632                	sw	a2,12(sp)
    295c:	c43e                	sw	a5,8(sp)
    295e:	f59ff0ef          	jal	ra,28b6 <printchar>
    2962:	47a2                	lw	a5,8(sp)
    2964:	4632                	lw	a2,12(sp)
    2966:	4742                	lw	a4,16(sp)
    2968:	14fd                	addi	s1,s1,-1
    296a:	fe9045e3          	bgtz	s1,2954 <prints+0x54>
    296e:	84b2                	mv	s1,a2
    2970:	00065363          	bgez	a2,2976 <prints+0x76>
    2974:	4481                	li	s1,0
    2976:	8e05                	sub	a2,a2,s1
    2978:	02e7c763          	blt	a5,a4,29a6 <prints+0xa6>
    297c:	87a6                	mv	a5,s1
    297e:	4692                	lw	a3,4(sp)
    2980:	40978733          	sub	a4,a5,s1
    2984:	9736                	add	a4,a4,a3
    2986:	00070583          	lb	a1,0(a4)
    298a:	ed9d                	bnez	a1,29c8 <prints+0xc8>
    298c:	84b2                	mv	s1,a2
    298e:	04904663          	bgtz	s1,29da <prints+0xda>
    2992:	00065363          	bgez	a2,2998 <prints+0x98>
    2996:	4601                	li	a2,0
    2998:	40f2                	lw	ra,28(sp)
    299a:	4462                	lw	s0,24(sp)
    299c:	44d2                	lw	s1,20(sp)
    299e:	00f60533          	add	a0,a2,a5
    29a2:	6105                	addi	sp,sp,32
    29a4:	8082                	ret
    29a6:	8f1d                	sub	a4,a4,a5
    29a8:	87ba                	mv	a5,a4
    29aa:	03000593          	li	a1,48
    29ae:	8522                	mv	a0,s0
    29b0:	c832                	sw	a2,16(sp)
    29b2:	c63e                	sw	a5,12(sp)
    29b4:	c43a                	sw	a4,8(sp)
    29b6:	f01ff0ef          	jal	ra,28b6 <printchar>
    29ba:	47b2                	lw	a5,12(sp)
    29bc:	4722                	lw	a4,8(sp)
    29be:	4642                	lw	a2,16(sp)
    29c0:	17fd                	addi	a5,a5,-1
    29c2:	f7e5                	bnez	a5,29aa <prints+0xaa>
    29c4:	94ba                	add	s1,s1,a4
    29c6:	bf5d                	j	297c <prints+0x7c>
    29c8:	8522                	mv	a0,s0
    29ca:	c632                	sw	a2,12(sp)
    29cc:	c43e                	sw	a5,8(sp)
    29ce:	ee9ff0ef          	jal	ra,28b6 <printchar>
    29d2:	47a2                	lw	a5,8(sp)
    29d4:	4632                	lw	a2,12(sp)
    29d6:	0785                	addi	a5,a5,1
    29d8:	b75d                	j	297e <prints+0x7e>
    29da:	4582                	lw	a1,0(sp)
    29dc:	8522                	mv	a0,s0
    29de:	c432                	sw	a2,8(sp)
    29e0:	c23e                	sw	a5,4(sp)
    29e2:	ed5ff0ef          	jal	ra,28b6 <printchar>
    29e6:	14fd                	addi	s1,s1,-1
    29e8:	4622                	lw	a2,8(sp)
    29ea:	4792                	lw	a5,4(sp)
    29ec:	b74d                	j	298e <prints+0x8e>

000029ee <printInt>:
    29ee:	7139                	addi	sp,sp,-64
    29f0:	de06                	sw	ra,60(sp)
    29f2:	dc22                	sw	s0,56(sp)
    29f4:	da26                	sw	s1,52(sp)
    29f6:	c23e                	sw	a5,4(sp)
    29f8:	8332                	mv	t1,a2
    29fa:	863a                	mv	a2,a4
    29fc:	ed91                	bnez	a1,2a18 <printInt+0x2a>
    29fe:	4692                	lw	a3,4(sp)
    2a00:	03000793          	li	a5,48
    2a04:	4701                	li	a4,0
    2a06:	086c                	addi	a1,sp,28
    2a08:	86fc                	sh	a5,28(sp)
    2a0a:	ef7ff0ef          	jal	ra,2900 <prints>
    2a0e:	50f2                	lw	ra,60(sp)
    2a10:	5462                	lw	s0,56(sp)
    2a12:	54d2                	lw	s1,52(sp)
    2a14:	6121                	addi	sp,sp,64
    2a16:	8082                	ret
    2a18:	84aa                	mv	s1,a0
    2a1a:	8436                	mv	s0,a3
    2a1c:	87ae                	mv	a5,a1
    2a1e:	ca91                	beqz	a3,2a32 <printInt+0x44>
    2a20:	4729                	li	a4,10
    2a22:	4401                	li	s0,0
    2a24:	00e31763          	bne	t1,a4,2a32 <printInt+0x44>
    2a28:	0005d563          	bgez	a1,2a32 <printInt+0x44>
    2a2c:	40b007b3          	neg	a5,a1
    2a30:	4405                	li	s0,1
    2a32:	4686                	lw	a3,64(sp)
    2a34:	020109a3          	sb	zero,51(sp)
    2a38:	03310713          	addi	a4,sp,51
    2a3c:	fc668693          	addi	a3,a3,-58
    2a40:	c436                	sw	a3,8(sp)
    2a42:	859a                	mv	a1,t1
    2a44:	853e                	mv	a0,a5
    2a46:	ca32                	sw	a2,20(sp)
    2a48:	c83a                	sw	a4,16(sp)
    2a4a:	c61a                	sw	t1,12(sp)
    2a4c:	c03e                	sw	a5,0(sp)
    2a4e:	eb2fd0ef          	jal	ra,100 <__umodsi3>
    2a52:	46a5                	li	a3,9
    2a54:	4782                	lw	a5,0(sp)
    2a56:	4332                	lw	t1,12(sp)
    2a58:	4742                	lw	a4,16(sp)
    2a5a:	4652                	lw	a2,20(sp)
    2a5c:	00a6d463          	bge	a3,a0,2a64 <printInt+0x76>
    2a60:	46a2                	lw	a3,8(sp)
    2a62:	9536                	add	a0,a0,a3
    2a64:	03050513          	addi	a0,a0,48
    2a68:	fff70693          	addi	a3,a4,-1
    2a6c:	fea70fa3          	sb	a0,-1(a4)
    2a70:	859a                	mv	a1,t1
    2a72:	853e                	mv	a0,a5
    2a74:	cc32                	sw	a2,24(sp)
    2a76:	ca3a                	sw	a4,20(sp)
    2a78:	c81a                	sw	t1,16(sp)
    2a7a:	c63e                	sw	a5,12(sp)
    2a7c:	c036                	sw	a3,0(sp)
    2a7e:	e56fd0ef          	jal	ra,d4 <__udivsi3>
    2a82:	47b2                	lw	a5,12(sp)
    2a84:	4342                	lw	t1,16(sp)
    2a86:	4752                	lw	a4,20(sp)
    2a88:	4662                	lw	a2,24(sp)
    2a8a:	0467fd63          	bgeu	a5,t1,2ae4 <printInt+0xf6>
    2a8e:	cc09                	beqz	s0,2aa8 <printInt+0xba>
    2a90:	ce29                	beqz	a2,2aea <printInt+0xfc>
    2a92:	4792                	lw	a5,4(sp)
    2a94:	8b89                	andi	a5,a5,2
    2a96:	cbb1                	beqz	a5,2aea <printInt+0xfc>
    2a98:	02d00593          	li	a1,45
    2a9c:	8526                	mv	a0,s1
    2a9e:	c432                	sw	a2,8(sp)
    2aa0:	e17ff0ef          	jal	ra,28b6 <printchar>
    2aa4:	4622                	lw	a2,8(sp)
    2aa6:	167d                	addi	a2,a2,-1
    2aa8:	4792                	lw	a5,4(sp)
    2aaa:	8b91                	andi	a5,a5,4
    2aac:	c785                	beqz	a5,2ad4 <printInt+0xe6>
    2aae:	4706                	lw	a4,64(sp)
    2ab0:	06100793          	li	a5,97
    2ab4:	c432                	sw	a2,8(sp)
    2ab6:	03000593          	li	a1,48
    2aba:	8526                	mv	a0,s1
    2abc:	04f71163          	bne	a4,a5,2afe <printInt+0x110>
    2ac0:	df7ff0ef          	jal	ra,28b6 <printchar>
    2ac4:	07800593          	li	a1,120
    2ac8:	8526                	mv	a0,s1
    2aca:	dedff0ef          	jal	ra,28b6 <printchar>
    2ace:	4622                	lw	a2,8(sp)
    2ad0:	0409                	addi	s0,s0,2
    2ad2:	1679                	addi	a2,a2,-2
    2ad4:	4716                	lw	a4,68(sp)
    2ad6:	4692                	lw	a3,4(sp)
    2ad8:	4582                	lw	a1,0(sp)
    2ada:	8526                	mv	a0,s1
    2adc:	e25ff0ef          	jal	ra,2900 <prints>
    2ae0:	9522                	add	a0,a0,s0
    2ae2:	b735                	j	2a0e <printInt+0x20>
    2ae4:	87aa                	mv	a5,a0
    2ae6:	4702                	lw	a4,0(sp)
    2ae8:	bfa9                	j	2a42 <printInt+0x54>
    2aea:	4682                	lw	a3,0(sp)
    2aec:	02d00793          	li	a5,45
    2af0:	4401                	li	s0,0
    2af2:	fef68fa3          	sb	a5,-1(a3)
    2af6:	ffe70793          	addi	a5,a4,-2
    2afa:	c03e                	sw	a5,0(sp)
    2afc:	b775                	j	2aa8 <printInt+0xba>
    2afe:	db9ff0ef          	jal	ra,28b6 <printchar>
    2b02:	05800593          	li	a1,88
    2b06:	b7c9                	j	2ac8 <printInt+0xda>

00002b08 <printLongLongInt>:
    2b08:	4501                	li	a0,0
    2b0a:	8082                	ret

00002b0c <printDouble>:
    2b0c:	4501                	li	a0,0
    2b0e:	8082                	ret

00002b10 <print>:
    2b10:	fd810113          	addi	sp,sp,-40
    2b14:	d022                	sw	s0,32(sp)
    2b16:	ce26                	sw	s1,28(sp)
    2b18:	d206                	sw	ra,36(sp)
    2b1a:	c42a                	sw	a0,8(sp)
    2b1c:	82ae                	mv	t0,a1
    2b1e:	8432                	mv	s0,a2
    2b20:	c602                	sw	zero,12(sp)
    2b22:	4481                	li	s1,0
    2b24:	00028583          	lb	a1,0(t0)
    2b28:	ed91                	bnez	a1,2b44 <print+0x34>
    2b2a:	47a2                	lw	a5,8(sp)
    2b2c:	c789                	beqz	a5,2b36 <print+0x26>
    2b2e:	4581                	li	a1,0
    2b30:	853e                	mv	a0,a5
    2b32:	d85ff0ef          	jal	ra,28b6 <printchar>
    2b36:	5092                	lw	ra,36(sp)
    2b38:	5402                	lw	s0,32(sp)
    2b3a:	8526                	mv	a0,s1
    2b3c:	44f2                	lw	s1,28(sp)
    2b3e:	02810113          	addi	sp,sp,40
    2b42:	8082                	ret
    2b44:	02500793          	li	a5,37
    2b48:	00f58963          	beq	a1,a5,2b5a <print+0x4a>
    2b4c:	4522                	lw	a0,8(sp)
    2b4e:	c816                	sw	t0,16(sp)
    2b50:	0485                	addi	s1,s1,1
    2b52:	d65ff0ef          	jal	ra,28b6 <printchar>
    2b56:	42c2                	lw	t0,16(sp)
    2b58:	a005                	j	2b78 <print+0x68>
    2b5a:	00128783          	lb	a5,1(t0)
    2b5e:	00128713          	addi	a4,t0,1
    2b62:	00b79d63          	bne	a5,a1,2b7c <print+0x6c>
    2b66:	4522                	lw	a0,8(sp)
    2b68:	02500593          	li	a1,37
    2b6c:	c83a                	sw	a4,16(sp)
    2b6e:	d49ff0ef          	jal	ra,28b6 <printchar>
    2b72:	4742                	lw	a4,16(sp)
    2b74:	0485                	addi	s1,s1,1
    2b76:	82ba                	mv	t0,a4
    2b78:	0285                	addi	t0,t0,1
    2b7a:	b76d                	j	2b24 <print+0x14>
    2b7c:	d7dd                	beqz	a5,2b2a <print+0x1a>
    2b7e:	02b00693          	li	a3,43
    2b82:	04d78963          	beq	a5,a3,2bd4 <print+0xc4>
    2b86:	00f6c863          	blt	a3,a5,2b96 <print+0x86>
    2b8a:	02300693          	li	a3,35
    2b8e:	04d78663          	beq	a5,a3,2bda <print+0xca>
    2b92:	4781                	li	a5,0
    2b94:	a005                	j	2bb4 <print+0xa4>
    2b96:	02d00693          	li	a3,45
    2b9a:	00d78a63          	beq	a5,a3,2bae <print+0x9e>
    2b9e:	03000693          	li	a3,48
    2ba2:	fed798e3          	bne	a5,a3,2b92 <print+0x82>
    2ba6:	00228713          	addi	a4,t0,2
    2baa:	4789                	li	a5,2
    2bac:	a021                	j	2bb4 <print+0xa4>
    2bae:	00228713          	addi	a4,t0,2
    2bb2:	4785                	li	a5,1
    2bb4:	00070683          	lb	a3,0(a4)
    2bb8:	02b00613          	li	a2,43
    2bbc:	04c68363          	beq	a3,a2,2c02 <print+0xf2>
    2bc0:	02d64163          	blt	a2,a3,2be2 <print+0xd2>
    2bc4:	02300613          	li	a2,35
    2bc8:	02c68b63          	beq	a3,a2,2bfe <print+0xee>
    2bcc:	82ba                	mv	t0,a4
    2bce:	4501                	li	a0,0
    2bd0:	46a5                	li	a3,9
    2bd2:	a081                	j	2c12 <print+0x102>
    2bd4:	00228713          	addi	a4,t0,2
    2bd8:	bf6d                	j	2b92 <print+0x82>
    2bda:	00228713          	addi	a4,t0,2
    2bde:	4791                	li	a5,4
    2be0:	bfd1                	j	2bb4 <print+0xa4>
    2be2:	02d00613          	li	a2,45
    2be6:	00c68963          	beq	a3,a2,2bf8 <print+0xe8>
    2bea:	03000613          	li	a2,48
    2bee:	fcc69fe3          	bne	a3,a2,2bcc <print+0xbc>
    2bf2:	0027e793          	ori	a5,a5,2
    2bf6:	a031                	j	2c02 <print+0xf2>
    2bf8:	0705                	addi	a4,a4,1
    2bfa:	4785                	li	a5,1
    2bfc:	bfc1                	j	2bcc <print+0xbc>
    2bfe:	0047e793          	ori	a5,a5,4
    2c02:	0705                	addi	a4,a4,1
    2c04:	b7e1                	j	2bcc <print+0xbc>
    2c06:	00251613          	slli	a2,a0,0x2
    2c0a:	9532                	add	a0,a0,a2
    2c0c:	0506                	slli	a0,a0,0x1
    2c0e:	953a                	add	a0,a0,a4
    2c10:	0285                	addi	t0,t0,1
    2c12:	00028603          	lb	a2,0(t0)
    2c16:	fd060713          	addi	a4,a2,-48
    2c1a:	0ff77593          	andi	a1,a4,255
    2c1e:	feb6f4e3          	bgeu	a3,a1,2c06 <print+0xf6>
    2c22:	02e00713          	li	a4,46
    2c26:	4699                	li	a3,6
    2c28:	00e61e63          	bne	a2,a4,2c44 <print+0x134>
    2c2c:	0285                	addi	t0,t0,1
    2c2e:	4681                	li	a3,0
    2c30:	45a5                	li	a1,9
    2c32:	00028603          	lb	a2,0(t0)
    2c36:	fd060613          	addi	a2,a2,-48
    2c3a:	0ff67713          	andi	a4,a2,255
    2c3e:	02e5f563          	bgeu	a1,a4,2c68 <print+0x158>
    2c42:	c636                	sw	a3,12(sp)
    2c44:	00028703          	lb	a4,0(t0)
    2c48:	06a00613          	li	a2,106
    2c4c:	0ac70d63          	beq	a4,a2,2d06 <print+0x1f6>
    2c50:	02e64363          	blt	a2,a4,2c76 <print+0x166>
    2c54:	04c00613          	li	a2,76
    2c58:	0ac70763          	beq	a4,a2,2d06 <print+0x1f6>
    2c5c:	06800613          	li	a2,104
    2c60:	08c70c63          	beq	a4,a2,2cf8 <print+0x1e8>
    2c64:	4581                	li	a1,0
    2c66:	a82d                	j	2ca0 <print+0x190>
    2c68:	00269713          	slli	a4,a3,0x2
    2c6c:	96ba                	add	a3,a3,a4
    2c6e:	0686                	slli	a3,a3,0x1
    2c70:	96b2                	add	a3,a3,a2
    2c72:	0285                	addi	t0,t0,1
    2c74:	bf7d                	j	2c32 <print+0x122>
    2c76:	07400613          	li	a2,116
    2c7a:	08c70663          	beq	a4,a2,2d06 <print+0x1f6>
    2c7e:	07a00613          	li	a2,122
    2c82:	08c70263          	beq	a4,a2,2d06 <print+0x1f6>
    2c86:	06c00613          	li	a2,108
    2c8a:	4581                	li	a1,0
    2c8c:	00c71a63          	bne	a4,a2,2ca0 <print+0x190>
    2c90:	00128603          	lb	a2,1(t0)
    2c94:	458d                	li	a1,3
    2c96:	00e61463          	bne	a2,a4,2c9e <print+0x18e>
    2c9a:	0285                	addi	t0,t0,1
    2c9c:	4591                	li	a1,4
    2c9e:	0285                	addi	t0,t0,1
    2ca0:	00028603          	lb	a2,0(t0)
    2ca4:	06000393          	li	t2,96
    2ca8:	06100713          	li	a4,97
    2cac:	00c3c463          	blt	t2,a2,2cb4 <print+0x1a4>
    2cb0:	04100713          	li	a4,65
    2cb4:	06700393          	li	t2,103
    2cb8:	06c3c463          	blt	t2,a2,2d20 <print+0x210>
    2cbc:	06500393          	li	t2,101
    2cc0:	18765663          	bge	a2,t2,2e4c <print+0x33c>
    2cc4:	04700393          	li	t2,71
    2cc8:	04c3c163          	blt	t2,a2,2d0a <print+0x1fa>
    2ccc:	04500593          	li	a1,69
    2cd0:	16b65e63          	bge	a2,a1,2e4c <print+0x33c>
    2cd4:	04300713          	li	a4,67
    2cd8:	eae610e3          	bne	a2,a4,2b78 <print+0x68>
    2cdc:	4018                	lw	a4,0(s0)
    2cde:	00440393          	addi	t2,s0,4
    2ce2:	ca16                	sw	t0,20(sp)
    2ce4:	00e10c23          	sb	a4,24(sp)
    2ce8:	c81e                	sw	t2,16(sp)
    2cea:	00010ca3          	sb	zero,25(sp)
    2cee:	4701                	li	a4,0
    2cf0:	86be                	mv	a3,a5
    2cf2:	862a                	mv	a2,a0
    2cf4:	082c                	addi	a1,sp,24
    2cf6:	a849                	j	2d88 <print+0x278>
    2cf8:	00128603          	lb	a2,1(t0)
    2cfc:	4581                	li	a1,0
    2cfe:	fae611e3          	bne	a2,a4,2ca0 <print+0x190>
    2d02:	0289                	addi	t0,t0,2
    2d04:	bf71                	j	2ca0 <print+0x190>
    2d06:	0285                	addi	t0,t0,1
    2d08:	bfb1                	j	2c64 <print+0x154>
    2d0a:	06300693          	li	a3,99
    2d0e:	fcd607e3          	beq	a2,a3,2cdc <print+0x1cc>
    2d12:	06c6cf63          	blt	a3,a2,2d90 <print+0x280>
    2d16:	05800693          	li	a3,88
    2d1a:	02d60363          	beq	a2,a3,2d40 <print+0x230>
    2d1e:	bda9                	j	2b78 <print+0x68>
    2d20:	07300693          	li	a3,115
    2d24:	04d60463          	beq	a2,a3,2d6c <print+0x25c>
    2d28:	02c6cb63          	blt	a3,a2,2d5e <print+0x24e>
    2d2c:	06f00693          	li	a3,111
    2d30:	0ed60563          	beq	a2,a3,2e1a <print+0x30a>
    2d34:	07000693          	li	a3,112
    2d38:	0047e793          	ori	a5,a5,4
    2d3c:	e2d61ee3          	bne	a2,a3,2b78 <print+0x68>
    2d40:	4691                	li	a3,4
    2d42:	0cd59263          	bne	a1,a3,2e06 <print+0x2f6>
    2d46:	00840393          	addi	t2,s0,8
    2d4a:	400c                	lw	a1,0(s0)
    2d4c:	4050                	lw	a2,4(s0)
    2d4e:	ca16                	sw	t0,20(sp)
    2d50:	c23a                	sw	a4,4(sp)
    2d52:	c03e                	sw	a5,0(sp)
    2d54:	c81e                	sw	t2,16(sp)
    2d56:	87aa                	mv	a5,a0
    2d58:	4701                	li	a4,0
    2d5a:	46c1                	li	a3,16
    2d5c:	a881                	j	2dac <print+0x29c>
    2d5e:	07500693          	li	a3,117
    2d62:	06d60b63          	beq	a2,a3,2dd8 <print+0x2c8>
    2d66:	07800693          	li	a3,120
    2d6a:	bf45                	j	2d1a <print+0x20a>
    2d6c:	4018                	lw	a4,0(s0)
    2d6e:	000036b7          	lui	a3,0x3
    2d72:	00440393          	addi	t2,s0,4
    2d76:	3bc68593          	addi	a1,a3,956 # 33bc <gamma_p+0x138>
    2d7a:	c311                	beqz	a4,2d7e <print+0x26e>
    2d7c:	85ba                	mv	a1,a4
    2d7e:	4732                	lw	a4,12(sp)
    2d80:	ca16                	sw	t0,20(sp)
    2d82:	c81e                	sw	t2,16(sp)
    2d84:	86be                	mv	a3,a5
    2d86:	862a                	mv	a2,a0
    2d88:	4522                	lw	a0,8(sp)
    2d8a:	b77ff0ef          	jal	ra,2900 <prints>
    2d8e:	a015                	j	2db2 <print+0x2a2>
    2d90:	4691                	li	a3,4
    2d92:	02d59563          	bne	a1,a3,2dbc <print+0x2ac>
    2d96:	00840393          	addi	t2,s0,8
    2d9a:	400c                	lw	a1,0(s0)
    2d9c:	4050                	lw	a2,4(s0)
    2d9e:	ca16                	sw	t0,20(sp)
    2da0:	c23a                	sw	a4,4(sp)
    2da2:	c03e                	sw	a5,0(sp)
    2da4:	c81e                	sw	t2,16(sp)
    2da6:	87aa                	mv	a5,a0
    2da8:	4705                	li	a4,1
    2daa:	46a9                	li	a3,10
    2dac:	4522                	lw	a0,8(sp)
    2dae:	d5bff0ef          	jal	ra,2b08 <printLongLongInt>
    2db2:	43c2                	lw	t2,16(sp)
    2db4:	94aa                	add	s1,s1,a0
    2db6:	841e                	mv	s0,t2
    2db8:	42d2                	lw	t0,20(sp)
    2dba:	bb7d                	j	2b78 <print+0x68>
    2dbc:	46b2                	lw	a3,12(sp)
    2dbe:	400c                	lw	a1,0(s0)
    2dc0:	c816                	sw	t0,16(sp)
    2dc2:	c236                	sw	a3,4(sp)
    2dc4:	c03a                	sw	a4,0(sp)
    2dc6:	0411                	addi	s0,s0,4
    2dc8:	872a                	mv	a4,a0
    2dca:	4685                	li	a3,1
    2dcc:	4629                	li	a2,10
    2dce:	4522                	lw	a0,8(sp)
    2dd0:	c1fff0ef          	jal	ra,29ee <printInt>
    2dd4:	94aa                	add	s1,s1,a0
    2dd6:	b341                	j	2b56 <print+0x46>
    2dd8:	4691                	li	a3,4
    2dda:	00d59d63          	bne	a1,a3,2df4 <print+0x2e4>
    2dde:	00840393          	addi	t2,s0,8
    2de2:	400c                	lw	a1,0(s0)
    2de4:	4050                	lw	a2,4(s0)
    2de6:	ca16                	sw	t0,20(sp)
    2de8:	c23a                	sw	a4,4(sp)
    2dea:	c03e                	sw	a5,0(sp)
    2dec:	c81e                	sw	t2,16(sp)
    2dee:	87aa                	mv	a5,a0
    2df0:	4701                	li	a4,0
    2df2:	bf65                	j	2daa <print+0x29a>
    2df4:	46b2                	lw	a3,12(sp)
    2df6:	400c                	lw	a1,0(s0)
    2df8:	c816                	sw	t0,16(sp)
    2dfa:	c236                	sw	a3,4(sp)
    2dfc:	c03a                	sw	a4,0(sp)
    2dfe:	0411                	addi	s0,s0,4
    2e00:	872a                	mv	a4,a0
    2e02:	4681                	li	a3,0
    2e04:	b7e1                	j	2dcc <print+0x2bc>
    2e06:	46b2                	lw	a3,12(sp)
    2e08:	c816                	sw	t0,16(sp)
    2e0a:	400c                	lw	a1,0(s0)
    2e0c:	4641                	li	a2,16
    2e0e:	c236                	sw	a3,4(sp)
    2e10:	c03a                	sw	a4,0(sp)
    2e12:	0411                	addi	s0,s0,4
    2e14:	872a                	mv	a4,a0
    2e16:	4681                	li	a3,0
    2e18:	bf5d                	j	2dce <print+0x2be>
    2e1a:	4691                	li	a3,4
    2e1c:	00d59e63          	bne	a1,a3,2e38 <print+0x328>
    2e20:	00840393          	addi	t2,s0,8
    2e24:	400c                	lw	a1,0(s0)
    2e26:	4050                	lw	a2,4(s0)
    2e28:	ca16                	sw	t0,20(sp)
    2e2a:	c23a                	sw	a4,4(sp)
    2e2c:	c03e                	sw	a5,0(sp)
    2e2e:	c81e                	sw	t2,16(sp)
    2e30:	87aa                	mv	a5,a0
    2e32:	4701                	li	a4,0
    2e34:	46a1                	li	a3,8
    2e36:	bf9d                	j	2dac <print+0x29c>
    2e38:	46b2                	lw	a3,12(sp)
    2e3a:	400c                	lw	a1,0(s0)
    2e3c:	c816                	sw	t0,16(sp)
    2e3e:	c236                	sw	a3,4(sp)
    2e40:	c03a                	sw	a4,0(sp)
    2e42:	0411                	addi	s0,s0,4
    2e44:	872a                	mv	a4,a0
    2e46:	4681                	li	a3,0
    2e48:	4621                	li	a2,8
    2e4a:	b751                	j	2dce <print+0x2be>
    2e4c:	400c                	lw	a1,0(s0)
    2e4e:	00840613          	addi	a2,s0,8
    2e52:	4040                	lw	s0,4(s0)
    2e54:	c23a                	sw	a4,4(sp)
    2e56:	872a                	mv	a4,a0
    2e58:	4522                	lw	a0,8(sp)
    2e5a:	c832                	sw	a2,16(sp)
    2e5c:	c03e                	sw	a5,0(sp)
    2e5e:	8622                	mv	a2,s0
    2e60:	87b6                	mv	a5,a3
    2e62:	46a9                	li	a3,10
    2e64:	ca16                	sw	t0,20(sp)
    2e66:	ca7ff0ef          	jal	ra,2b0c <printDouble>
    2e6a:	94aa                	add	s1,s1,a0
    2e6c:	4442                	lw	s0,16(sp)
    2e6e:	b7a9                	j	2db8 <print+0x2a8>

00002e70 <printf>:
    2e70:	fdc10113          	addi	sp,sp,-36
    2e74:	c82e                	sw	a1,16(sp)
    2e76:	ca32                	sw	a2,20(sp)
    2e78:	85aa                	mv	a1,a0
    2e7a:	0810                	addi	a2,sp,16
    2e7c:	4501                	li	a0,0
    2e7e:	c606                	sw	ra,12(sp)
    2e80:	cc36                	sw	a3,24(sp)
    2e82:	ce3a                	sw	a4,28(sp)
    2e84:	d03e                	sw	a5,32(sp)
    2e86:	c032                	sw	a2,0(sp)
    2e88:	c89ff0ef          	jal	ra,2b10 <print>
    2e8c:	40b2                	lw	ra,12(sp)
    2e8e:	02410113          	addi	sp,sp,36
    2e92:	8082                	ret

00002e94 <sprintf>:
    2e94:	fd410113          	addi	sp,sp,-44
    2e98:	ce32                	sw	a2,28(sp)
    2e9a:	d43e                	sw	a5,40(sp)
    2e9c:	c62a                	sw	a0,12(sp)
    2e9e:	0870                	addi	a2,sp,28
    2ea0:	57fd                	li	a5,-1
    2ea2:	0048                	addi	a0,sp,4
    2ea4:	cc06                	sw	ra,24(sp)
    2ea6:	d036                	sw	a3,32(sp)
    2ea8:	d23a                	sw	a4,36(sp)
    2eaa:	c202                	sw	zero,4(sp)
    2eac:	c43e                	sw	a5,8(sp)
    2eae:	c032                	sw	a2,0(sp)
    2eb0:	c61ff0ef          	jal	ra,2b10 <print>
    2eb4:	40e2                	lw	ra,24(sp)
    2eb6:	02c10113          	addi	sp,sp,44
    2eba:	8082                	ret

00002ebc <font7x10>:
	...
    2ec4:	0000 1010 1010 1010 1000 0000 2828 0028     ............(((.
    2ed4:	0000 0000 0000 2424 247c 7c48 4848 0000     ......$$|$H|HH..
    2ee4:	5438 3850 5414 3854 0010 5420 3058 5428     8TP8.TT8.. TX0(T
    2ef4:	0814 0000 2810 1028 4834 3448 0000 1010     .....((.4HH4....
    2f04:	0010 0000 0000 0000 1008 2020 2020 2020     ..........      
    2f14:	0810 1020 0808 0808 0808 2010 3810 2810     .. ........ .8.(
	...
    2f2c:	1010 107c 0010 0000 0000 0000 0000 1000     ..|.............
    2f3c:	1010 0000 0000 3800 0000 0000 0000 0000     .......8........
    2f4c:	0000 1000 0000 0808 1010 1010 2020 0000     ............  ..
    2f5c:	4438 5444 4444 3844 0000 3010 1050 1010     8DDTDDD8...0P...
    2f6c:	1010 0000 4438 0444 1008 7c20 0000 4438     ....8DD... |..8D
    2f7c:	1804 0404 3844 0000 1808 2828 7c48 0808     ....D8....((H|..
    2f8c:	0000 407c 7840 0404 3844 0000 4438 7840     ..|@@x..D8..8D@x
    2f9c:	4444 3844 0000 047c 1008 2010 2020 0000     DDD8..|....   ..
    2fac:	4438 3844 4444 3844 0000 4438 4444 043c     8DD8DDD8..8DDD<.
    2fbc:	3844 0000 0000 0010 0000 1000 0000 0000     D8..............
    2fcc:	1000 0000 1000 1010 0000 300c 3040 000c     ...........0@0..
    2fdc:	0000 0000 7c00 7c00 0000 0000 0000 1860     .....|.|......`.
    2fec:	1804 0060 0000 4438 0804 1010 1000 0000     ..`...8D........
    2ffc:	4438 544c 405c 3840 0000 2810 2828 7c28     8DLT\@@8...((((|
    300c:	4444 0000 4478 7844 4444 7844 0000 4438     DD..xDDxDDDx..8D
    301c:	4040 4040 3844 0000 4870 4444 4444 7048     @@@@D8..pHDDDDHp
    302c:	0000 407c 7c40 4040 7c40 0000 407c 7840     ..|@@|@@@|..|@@x
    303c:	4040 4040 0000 4438 4040 445c 3844 0000     @@@@..8D@@\DD8..
    304c:	4444 7c44 4444 4444 0000 1038 1010 1010     DDD|DDDD..8.....
    305c:	3810 0000 0404 0404 0404 3844 0000 4844     .8........D8..DH
    306c:	6050 4850 4448 0000 4040 4040 4040 7c40     P`PHHD..@@@@@@@|
    307c:	0000 6c44 546c 4444 4444 0000 6444 5464     ..DllTDDDD..DddT
    308c:	4c54 444c 0000 4438 4444 4444 3844 0000     TLLD..8DDDDDD8..
    309c:	4478 4444 4078 4040 0000 4438 4444 4444     xDDDx@@@..8DDDDD
    30ac:	3854 0004 4478 4444 4878 4448 0000 4438     T8..xDDDxHHD..8D
    30bc:	3040 0408 3844 0000 107c 1010 1010 1010     @0..D8..|.......
    30cc:	0000 4444 4444 4444 3844 0000 4444 2844     ..DDDDDDD8..DDD(
    30dc:	2828 1010 0000 4444 5454 6c54 2828 0000     ((....DDTTTl((..
    30ec:	2844 1028 2810 4428 0000 4444 2828 1010     D((..((D..DD((..
    30fc:	1010 0000 047c 1008 2010 7c40 0000 1018     ....|.... @|....
    310c:	1010 1010 1010 1810 2020 1010 1010 0808     ........  ......
    311c:	0000 1030 1010 1010 1010 3010 2810 4428     ..0........0.((D
	...
    3138:	0000 fe00 1020 0000 0000 0000 0000 0000     .... ...........
    3148:	4438 443c 344c 0000 4040 6458 4444 5864     8D<DL4..@@XdDDdX
    3158:	0000 0000 4438 4040 3844 0000 0404 4c34     ....8D@@D8....4L
    3168:	4444 344c 0000 0000 4438 407c 3844 0000     DDL4....8D|@D8..
    3178:	100c 107c 1010 1010 0000 0000 4c34 4444     ..|.........4LDD
    3188:	344c 7804 4040 6458 4444 4444 0000 0010     L4.x@@XdDDDD....
    3198:	1070 1010 1010 0000 0010 1070 1010 1010     p.........p.....
    31a8:	e010 4040 5048 5060 4448 0000 1070 1010     ..@@HP`PHD..p...
    31b8:	1010 1010 0000 0000 5478 5454 5454 0000     ........xTTTTT..
    31c8:	0000 6458 4444 4444 0000 0000 4438 4444     ..XdDDDD....8DDD
    31d8:	3844 0000 0000 6458 4444 5864 4040 0000     D8....XdDDdX@@..
    31e8:	4c34 4444 344c 0404 0000 6458 4040 4040     4LDDL4....Xd@@@@
    31f8:	0000 0000 4438 0830 3844 0000 2020 2078     ....8D0.D8..  x 
    3208:	2020 1820 0000 0000 4444 4444 344c 0000        .....DDDDL4..
    3218:	0000 4444 2828 1028 0000 0000 5454 6c54     ..DD(((.....TTTl
    3228:	2828 0000 0000 2844 1010 4428 0000 0000     ((....D(..(D....
    3238:	4444 2828 1010 6010 0000 087c 2010 7c40     DD((...`..|.. @|
    3248:	0000 1018 1010 2020 1010 1810 1010 1010     ......  ........
    3258:	1010 1010 1010 1030 1010 0808 1010 3010     ......0........0
    3268:	0000 7400 004c 0000 0000 0000               ...tL.......

00003274 <gamma_n>:
    3274:	140b 1e08 1d22 1e18 1a1b 2b24 0606 0f02     ....".....$+....

00003284 <gamma_p>:
    3284:	1609 2009 1b21 1913 1517 2b1e 0504 0e02     ... !......+....
    3294:	4441 3143 432d 3748 203a 0000 3425 0064     ADC1-CH7: ..%4d.
    32a4:	6d20 0056 4843 3233 3056 3330 5320 5750      mV.CH32V003 SPW
    32b4:	2d4d 4d44 2d41 4954 314d 5320 4950 442d     M-DMA-TIM1 SPI-D
    32c4:	414d 492d 494c 3339 3134 0000 2e31 5220     MA-ILI9341..1. R
    32d4:	6e61 6f64 206d 6f64 0074 0000 2e32 4820     andom dot...2. H
    32e4:	726f 7a69 6e6f 6c20 6e69 0065 2e33 5620     orizon line.3. V
    32f4:	7265 6974 6163 206c 696c 656e 0000 0000     ertical line....
    3304:	2e34 5220 6e61 6f64 206d 696c 656e 0000     4. Random line..
    3314:	2e35 4320 6e65 6574 2072 6552 7463 6e61     5. Center Rectan
    3324:	6c67 0065 2e36 5220 6e61 6f64 206d 6552     gle.6. Random Re
    3334:	7463 6e61 6c67 0065 2e37 4620 6c69 656c     ctangle.7. Fille
    3344:	2064 6572 7463 6e61 6c67 0065 2e38 4d20     d rectangle.8. M
    3354:	766f 2065 6552 7463 6e61 6c67 0065 0000     ove Rectangle...
    3364:	2e39 5220 6e61 6f64 206d 6943 6372 656c     9. Random Circle
    3374:	0000 0000 3031 202e 6946 6c6c 6465 4320     ....10. Filled C
    3384:	7269 6c63 0065 0000 4954 324d 432d 544e     ircle...TIM2-CNT
    3394:	203a 0000 6d20 0073 7953 7473 6d65 6c43     : .. ms.SystemCl
    33a4:	3a6b 6425 0a0d 0000 6843 7069 4449 253a     k:%d....ChipID:%
    33b4:	3830 0d78 000a 0000 6e28 6c75 296c 0000     08x.....(null)..
